(0000) 3000  0011000000000000 (   2)                 .ORIG x3000
(3000) 2803  0010100000000011 (   3)                 LD    R4 x3004
(3001) 2A03  0010101000000011 (   4)                 LD    R5 x3005
(3002) 2C03  0010110000000011 (   5)                 LD    R6 x3006
(3003) 0E03  0000111000000011 (   6)                 BRNZP Fnmain
(3004) 37D1  0011011111010001 (   7)                 .FILL x37D1
(3005) 377A  0011011101111010 (   8)                 .FILL x377A
(3006) 3781  0011011110000001 (   9)                 .FILL x3781
(3007) 2201  0010001000000001 (  11) Fnmain          LD    R1 x3009
(3008) 0E01  0000111000000001 (  12)                 BRNZP LBL11
(3009) 4000  0100000000000000 (  13)                 .FILL x4000
(300A) 7301  0111001100000001 (  14) LBL11           STR   R1 R4 #1
(300B) 6301  0110001100000001 (  15)                 LDR   R1 R4 #1
(300C) 733E  0111001100111110 (  16)                 STR   R1 R4 #-2
(300D) 133E  0001001100111110 (  17)                 ADD   R1 R4 #-2
(300E) 7301  0111001100000001 (  18)                 STR   R1 R4 #1
(300F) 6F01  0110111100000001 (  20)                 LDR   R7 R4 #1
(3010) 6FC0  0110111111000000 (  21)                 LDR   R7 R7 #0
(3011) 7F01  0111111100000001 (  22)                 STR   R7 R4 #1
(3012) 2201  0010001000000001 (  24)                 LD    R1 x3014
(3013) 0E01  0000111000000001 (  25)                 BRNZP LBL12
(3014) 0000  0000000000000000 (  26)                 .FILL x0000
(3015) 7302  0111001100000010 (  27) LBL12           STR   R1 R4 #2
(3016) 6502  0110010100000010 (  28)                 LDR   R2 R4 #2
(3017) 6301  0110001100000001 (  29)                 LDR   R1 R4 #1
(3018) 1242  0001001001000010 (  30)                 ADD   R1 R1 R2
(3019) 7301  0111001100000001 (  31)                 STR   R1 R4 #1
(301A) 2201  0010001000000001 (  33)                 LD    R1 x301C
(301B) 0E01  0000111000000001 (  34)                 BRNZP LBL13
(301C) 4100  0100000100000000 (  35)                 .FILL x4100
(301D) 7302  0111001100000010 (  36) LBL13           STR   R1 R4 #2
(301E) 6502  0110010100000010 (  37)                 LDR   R2 R4 #2
(301F) 6301  0110001100000001 (  38)                 LDR   R1 R4 #1
(3020) 7440  0111010001000000 (  39)                 STR   R2 R1 #0
(3021) 7501  0111010100000001 (  40)                 STR   R2 R4 #1
(3022) 6341  0110001101000001 (  42)                 LDR   R1 R5 #1
(3023) 7301  0111001100000001 (  43)                 STR   R1 R4 #1
(3024) E201  1110001000000001 (  45)                 LEA   R1 x3026
(3025) 0E04  0000111000000100 (  46)                 BRNZP LBL14
(3026) 0035  0000000000110101 (  47)                 .FILL x0035
(3027) 0032  0000000000110010 (  47)                 .FILL x0032
(3028) 0030  0000000000110000 (  47)                 .FILL x0030
(3029) 0000  0000000000000000 (  47)                 .FILL x0000
(302A) 7302  0111001100000010 (  48) LBL14           STR   R1 R4 #2
(302B) 133E  0001001100111110 (  49)                 ADD   R1 R4 #-2
(302C) 7303  0111001100000011 (  50)                 STR   R1 R4 #3
(302D) 6F03  0110111100000011 (  52)                 LDR   R7 R4 #3
(302E) 6FC0  0110111111000000 (  53)                 LDR   R7 R7 #0
(302F) 7F03  0111111100000011 (  54)                 STR   R7 R4 #3
(3030) 2201  0010001000000001 (  56)                 LD    R1 x3032
(3031) 0E01  0000111000000001 (  57)                 BRNZP LBL15
(3032) 0001  0000000000000001 (  58)                 .FILL x0001
(3033) 7304  0111001100000100 (  59) LBL15           STR   R1 R4 #4
(3034) 6504  0110010100000100 (  60)                 LDR   R2 R4 #4
(3035) 6303  0110001100000011 (  61)                 LDR   R1 R4 #3
(3036) 1242  0001001001000010 (  62)                 ADD   R1 R1 R2
(3037) 7303  0111001100000011 (  63)                 STR   R1 R4 #3
(3038) 2201  0010001000000001 (  65)                 LD    R1 x303A
(3039) 0E01  0000111000000001 (  66)                 BRNZP LBL16
(303A) D000  1101000000000000 (  67)                 .FILL xD000
(303B) 7304  0111001100000100 (  68) LBL16           STR   R1 R4 #4
(303C) 6504  0110010100000100 (  69)                 LDR   R2 R4 #4
(303D) 6303  0110001100000011 (  70)                 LDR   R1 R4 #3
(303E) 7440  0111010001000000 (  71)                 STR   R2 R1 #0
(303F) 7503  0111010100000011 (  72)                 STR   R2 R4 #3
(3040) 6303  0110001100000011 (  74)                 LDR   R1 R4 #3
(3041) 7303  0111001100000011 (  76)                 STR   R1 R4 #3
(3042) 6302  0110001100000010 (  77)                 LDR   R1 R4 #2
(3043) 7302  0111001100000010 (  79)                 STR   R1 R4 #2
(3044) 5260  0101001001100000 (  80)                 AND   R1 R1 #0
(3045) 7305  0111001100000101 (  81)                 STR   R1 R4 #5
(3046) 6F01  0110111100000001 (  82)                 LDR   R7 R4 #1
(3047) 5260  0101001001100000 (  83)                 AND   R1 R1 #0
(3048) 127F  0001001001111111 (  84)                 ADD   R1 R1 #-1
(3049) 7301  0111001100000001 (  85)                 STR   R1 R4 #1
(304A) 1921  0001100100100001 (  86)                 ADD   R4 R4 #1
(304B) 41C0  0100000111000000 (  87)                 JSRR  R7
(304C) 7101  0111000100000001 (  88)                 STR   R0 R4 #1
(304D) 6341  0110001101000001 (  90)                 LDR   R1 R5 #1
(304E) 7301  0111001100000001 (  91)                 STR   R1 R4 #1
(304F) E201  1110001000000001 (  93)                 LEA   R1 x3051
(3050) 0E09  0000111000001001 (  94)                 BRNZP LBL17
(3051) 0058  0000000001011000 (  95)                 .FILL x0058
(3052) 0069  0000000001101001 (  95)                 .FILL x0069
(3053) 0061  0000000001100001 (  95)                 .FILL x0061
(3054) 006F  0000000001101111 (  95)                 .FILL x006F
(3055) 0068  0000000001101000 (  95)                 .FILL x0068
(3056) 006F  0000000001101111 (  95)                 .FILL x006F
(3057) 006E  0000000001101110 (  95)                 .FILL x006E
(3058) 0067  0000000001100111 (  95)                 .FILL x0067
(3059) 0000  0000000000000000 (  95)                 .FILL x0000
(305A) 7302  0111001100000010 (  96) LBL17           STR   R1 R4 #2
(305B) 133E  0001001100111110 (  97)                 ADD   R1 R4 #-2
(305C) 7303  0111001100000011 (  98)                 STR   R1 R4 #3
(305D) 6F03  0110111100000011 ( 100)                 LDR   R7 R4 #3
(305E) 6FC0  0110111111000000 ( 101)                 LDR   R7 R7 #0
(305F) 7F03  0111111100000011 ( 102)                 STR   R7 R4 #3
(3060) 2201  0010001000000001 ( 104)                 LD    R1 x3062
(3061) 0E01  0000111000000001 ( 105)                 BRNZP LBL18
(3062) 0002  0000000000000010 ( 106)                 .FILL x0002
(3063) 7304  0111001100000100 ( 107) LBL18           STR   R1 R4 #4
(3064) 6504  0110010100000100 ( 108)                 LDR   R2 R4 #4
(3065) 6303  0110001100000011 ( 109)                 LDR   R1 R4 #3
(3066) 1242  0001001001000010 ( 110)                 ADD   R1 R1 R2
(3067) 7303  0111001100000011 ( 111)                 STR   R1 R4 #3
(3068) 2201  0010001000000001 ( 113)                 LD    R1 x306A
(3069) 0E01  0000111000000001 ( 114)                 BRNZP LBL19
(306A) D010  1101000000010000 ( 115)                 .FILL xD010
(306B) 7304  0111001100000100 ( 116) LBL19           STR   R1 R4 #4
(306C) 6504  0110010100000100 ( 117)                 LDR   R2 R4 #4
(306D) 6303  0110001100000011 ( 118)                 LDR   R1 R4 #3
(306E) 7440  0111010001000000 ( 119)                 STR   R2 R1 #0
(306F) 7503  0111010100000011 ( 120)                 STR   R2 R4 #3
(3070) 6303  0110001100000011 ( 122)                 LDR   R1 R4 #3
(3071) 7303  0111001100000011 ( 124)                 STR   R1 R4 #3
(3072) 6302  0110001100000010 ( 125)                 LDR   R1 R4 #2
(3073) 7302  0111001100000010 ( 127)                 STR   R1 R4 #2
(3074) 5260  0101001001100000 ( 128)                 AND   R1 R1 #0
(3075) 7305  0111001100000101 ( 129)                 STR   R1 R4 #5
(3076) 6F01  0110111100000001 ( 130)                 LDR   R7 R4 #1
(3077) 5260  0101001001100000 ( 131)                 AND   R1 R1 #0
(3078) 127F  0001001001111111 ( 132)                 ADD   R1 R1 #-1
(3079) 7301  0111001100000001 ( 133)                 STR   R1 R4 #1
(307A) 1921  0001100100100001 ( 134)                 ADD   R4 R4 #1
(307B) 41C0  0100000111000000 ( 135)                 JSRR  R7
(307C) 7101  0111000100000001 ( 136)                 STR   R0 R4 #1
(307D) 6341  0110001101000001 ( 138)                 LDR   R1 R5 #1
(307E) 7301  0111001100000001 ( 139)                 STR   R1 R4 #1
(307F) E201  1110001000000001 ( 141)                 LEA   R1 x3081
(3080) 0E06  0000111000000110 ( 142)                 BRNZP LBL20
(3081) 004A  0000000001001010 ( 143)                 .FILL x004A
(3082) 0069  0000000001101001 ( 143)                 .FILL x0069
(3083) 0061  0000000001100001 ( 143)                 .FILL x0061
(3084) 006E  0000000001101110 ( 143)                 .FILL x006E
(3085) 0067  0000000001100111 ( 143)                 .FILL x0067
(3086) 0000  0000000000000000 ( 143)                 .FILL x0000
(3087) 7302  0111001100000010 ( 144) LBL20           STR   R1 R4 #2
(3088) 133E  0001001100111110 ( 145)                 ADD   R1 R4 #-2
(3089) 7303  0111001100000011 ( 146)                 STR   R1 R4 #3
(308A) 6F03  0110111100000011 ( 148)                 LDR   R7 R4 #3
(308B) 6FC0  0110111111000000 ( 149)                 LDR   R7 R7 #0
(308C) 7F03  0111111100000011 ( 150)                 STR   R7 R4 #3
(308D) 2201  0010001000000001 ( 152)                 LD    R1 x308F
(308E) 0E01  0000111000000001 ( 153)                 BRNZP LBL21
(308F) 0003  0000000000000011 ( 154)                 .FILL x0003
(3090) 7304  0111001100000100 ( 155) LBL21           STR   R1 R4 #4
(3091) 6504  0110010100000100 ( 156)                 LDR   R2 R4 #4
(3092) 6303  0110001100000011 ( 157)                 LDR   R1 R4 #3
(3093) 1242  0001001001000010 ( 158)                 ADD   R1 R1 R2
(3094) 7303  0111001100000011 ( 159)                 STR   R1 R4 #3
(3095) 2201  0010001000000001 ( 161)                 LD    R1 x3097
(3096) 0E01  0000111000000001 ( 162)                 BRNZP LBL22
(3097) D020  1101000000100000 ( 163)                 .FILL xD020
(3098) 7304  0111001100000100 ( 164) LBL22           STR   R1 R4 #4
(3099) 6504  0110010100000100 ( 165)                 LDR   R2 R4 #4
(309A) 6303  0110001100000011 ( 166)                 LDR   R1 R4 #3
(309B) 7440  0111010001000000 ( 167)                 STR   R2 R1 #0
(309C) 7503  0111010100000011 ( 168)                 STR   R2 R4 #3
(309D) 6303  0110001100000011 ( 170)                 LDR   R1 R4 #3
(309E) 7303  0111001100000011 ( 172)                 STR   R1 R4 #3
(309F) 6302  0110001100000010 ( 173)                 LDR   R1 R4 #2
(30A0) 7302  0111001100000010 ( 175)                 STR   R1 R4 #2
(30A1) 5260  0101001001100000 ( 176)                 AND   R1 R1 #0
(30A2) 7305  0111001100000101 ( 177)                 STR   R1 R4 #5
(30A3) 6F01  0110111100000001 ( 178)                 LDR   R7 R4 #1
(30A4) 5260  0101001001100000 ( 179)                 AND   R1 R1 #0
(30A5) 127F  0001001001111111 ( 180)                 ADD   R1 R1 #-1
(30A6) 7301  0111001100000001 ( 181)                 STR   R1 R4 #1
(30A7) 1921  0001100100100001 ( 182)                 ADD   R4 R4 #1
(30A8) 41C0  0100000111000000 ( 183)                 JSRR  R7
(30A9) 7101  0111000100000001 ( 184)                 STR   R0 R4 #1
(30AA) 133E  0001001100111110 ( 186)                 ADD   R1 R4 #-2
(30AB) 7301  0111001100000001 ( 187)                 STR   R1 R4 #1
(30AC) 2201  0010001000000001 ( 189)                 LD    R1 x30AE
(30AD) 0E01  0000111000000001 ( 190)                 BRNZP LBL23
(30AE) 4100  0100000100000000 ( 191)                 .FILL x4100
(30AF) 7302  0111001100000010 ( 192) LBL23           STR   R1 R4 #2
(30B0) 6502  0110010100000010 ( 193)                 LDR   R2 R4 #2
(30B1) 6301  0110001100000001 ( 194)                 LDR   R1 R4 #1
(30B2) 7440  0111010001000000 ( 195)                 STR   R2 R1 #0
(30B3) 7501  0111010100000001 ( 196)                 STR   R2 R4 #1
(30B4) 133E  0001001100111110 ( 198)                 ADD   R1 R4 #-2
(30B5) 7301  0111001100000001 ( 199)                 STR   R1 R4 #1
(30B6) 6F01  0110111100000001 ( 201)                 LDR   R7 R4 #1
(30B7) 6FC0  0110111111000000 ( 202)                 LDR   R7 R7 #0
(30B8) 7F01  0111111100000001 ( 203)                 STR   R7 R4 #1
(30B9) 2201  0010001000000001 ( 205)                 LD    R1 x30BB
(30BA) 0E01  0000111000000001 ( 206)                 BRNZP LBL24
(30BB) 0000  0000000000000000 ( 207)                 .FILL x0000
(30BC) 7302  0111001100000010 ( 208) LBL24           STR   R1 R4 #2
(30BD) 6502  0110010100000010 ( 209)                 LDR   R2 R4 #2
(30BE) 6301  0110001100000001 ( 210)                 LDR   R1 R4 #1
(30BF) 1242  0001001001000010 ( 211)                 ADD   R1 R1 R2
(30C0) 7301  0111001100000001 ( 212)                 STR   R1 R4 #1
(30C1) 2201  0010001000000001 ( 214)                 LD    R1 x30C3
(30C2) 0E01  0000111000000001 ( 215)                 BRNZP LBL25
(30C3) 4200  0100001000000000 ( 216)                 .FILL x4200
(30C4) 7302  0111001100000010 ( 217) LBL25           STR   R1 R4 #2
(30C5) 6502  0110010100000010 ( 218)                 LDR   R2 R4 #2
(30C6) 6301  0110001100000001 ( 219)                 LDR   R1 R4 #1
(30C7) 7440  0111010001000000 ( 220)                 STR   R2 R1 #0
(30C8) 7501  0111010100000001 ( 221)                 STR   R2 R4 #1
(30C9) 6341  0110001101000001 ( 223)                 LDR   R1 R5 #1
(30CA) 7301  0111001100000001 ( 224)                 STR   R1 R4 #1
(30CB) E201  1110001000000001 ( 226)                 LEA   R1 x30CD
(30CC) 0E04  0000111000000100 ( 227)                 BRNZP LBL26
(30CD) 0033  0000000000110011 ( 228)                 .FILL x0033
(30CE) 0030  0000000000110000 ( 228)                 .FILL x0030
(30CF) 0031  0000000000110001 ( 228)                 .FILL x0031
(30D0) 0000  0000000000000000 ( 228)                 .FILL x0000
(30D1) 7302  0111001100000010 ( 229) LBL26           STR   R1 R4 #2
(30D2) 133E  0001001100111110 ( 230)                 ADD   R1 R4 #-2
(30D3) 7303  0111001100000011 ( 231)                 STR   R1 R4 #3
(30D4) 6F03  0110111100000011 ( 233)                 LDR   R7 R4 #3
(30D5) 6FC0  0110111111000000 ( 234)                 LDR   R7 R7 #0
(30D6) 7F03  0111111100000011 ( 235)                 STR   R7 R4 #3
(30D7) 2201  0010001000000001 ( 237)                 LD    R1 x30D9
(30D8) 0E01  0000111000000001 ( 238)                 BRNZP LBL27
(30D9) 0001  0000000000000001 ( 239)                 .FILL x0001
(30DA) 7304  0111001100000100 ( 240) LBL27           STR   R1 R4 #4
(30DB) 6504  0110010100000100 ( 241)                 LDR   R2 R4 #4
(30DC) 6303  0110001100000011 ( 242)                 LDR   R1 R4 #3
(30DD) 1242  0001001001000010 ( 243)                 ADD   R1 R1 R2
(30DE) 7303  0111001100000011 ( 244)                 STR   R1 R4 #3
(30DF) 2201  0010001000000001 ( 246)                 LD    R1 x30E1
(30E0) 0E01  0000111000000001 ( 247)                 BRNZP LBL28
(30E1) D100  1101000100000000 ( 248)                 .FILL xD100
(30E2) 7304  0111001100000100 ( 249) LBL28           STR   R1 R4 #4
(30E3) 6504  0110010100000100 ( 250)                 LDR   R2 R4 #4
(30E4) 6303  0110001100000011 ( 251)                 LDR   R1 R4 #3
(30E5) 7440  0111010001000000 ( 252)                 STR   R2 R1 #0
(30E6) 7503  0111010100000011 ( 253)                 STR   R2 R4 #3
(30E7) 6303  0110001100000011 ( 255)                 LDR   R1 R4 #3
(30E8) 7303  0111001100000011 ( 257)                 STR   R1 R4 #3
(30E9) 6302  0110001100000010 ( 258)                 LDR   R1 R4 #2
(30EA) 7302  0111001100000010 ( 260)                 STR   R1 R4 #2
(30EB) 5260  0101001001100000 ( 261)                 AND   R1 R1 #0
(30EC) 7305  0111001100000101 ( 262)                 STR   R1 R4 #5
(30ED) 6F01  0110111100000001 ( 263)                 LDR   R7 R4 #1
(30EE) 5260  0101001001100000 ( 264)                 AND   R1 R1 #0
(30EF) 127F  0001001001111111 ( 265)                 ADD   R1 R1 #-1
(30F0) 7301  0111001100000001 ( 266)                 STR   R1 R4 #1
(30F1) 1921  0001100100100001 ( 267)                 ADD   R4 R4 #1
(30F2) 41C0  0100000111000000 ( 268)                 JSRR  R7
(30F3) 7101  0111000100000001 ( 269)                 STR   R0 R4 #1
(30F4) 6341  0110001101000001 ( 271)                 LDR   R1 R5 #1
(30F5) 7301  0111001100000001 ( 272)                 STR   R1 R4 #1
(30F6) E201  1110001000000001 ( 274)                 LEA   R1 x30F8
(30F7) 0E04  0000111000000100 ( 275)                 BRNZP LBL29
(30F8) 0053  0000000001010011 ( 276)                 .FILL x0053
(30F9) 0068  0000000001101000 ( 276)                 .FILL x0068
(30FA) 0069  0000000001101001 ( 276)                 .FILL x0069
(30FB) 0000  0000000000000000 ( 276)                 .FILL x0000
(30FC) 7302  0111001100000010 ( 277) LBL29           STR   R1 R4 #2
(30FD) 133E  0001001100111110 ( 278)                 ADD   R1 R4 #-2
(30FE) 7303  0111001100000011 ( 279)                 STR   R1 R4 #3
(30FF) 6F03  0110111100000011 ( 281)                 LDR   R7 R4 #3
(3100) 6FC0  0110111111000000 ( 282)                 LDR   R7 R7 #0
(3101) 7F03  0111111100000011 ( 283)                 STR   R7 R4 #3
(3102) 2201  0010001000000001 ( 285)                 LD    R1 x3104
(3103) 0E01  0000111000000001 ( 286)                 BRNZP LBL30
(3104) 0002  0000000000000010 ( 287)                 .FILL x0002
(3105) 7304  0111001100000100 ( 288) LBL30           STR   R1 R4 #4
(3106) 6504  0110010100000100 ( 289)                 LDR   R2 R4 #4
(3107) 6303  0110001100000011 ( 290)                 LDR   R1 R4 #3
(3108) 1242  0001001001000010 ( 291)                 ADD   R1 R1 R2
(3109) 7303  0111001100000011 ( 292)                 STR   R1 R4 #3
(310A) 2201  0010001000000001 ( 294)                 LD    R1 x310C
(310B) 0E01  0000111000000001 ( 295)                 BRNZP LBL31
(310C) D110  1101000100010000 ( 296)                 .FILL xD110
(310D) 7304  0111001100000100 ( 297) LBL31           STR   R1 R4 #4
(310E) 6504  0110010100000100 ( 298)                 LDR   R2 R4 #4
(310F) 6303  0110001100000011 ( 299)                 LDR   R1 R4 #3
(3110) 7440  0111010001000000 ( 300)                 STR   R2 R1 #0
(3111) 7503  0111010100000011 ( 301)                 STR   R2 R4 #3
(3112) 6303  0110001100000011 ( 303)                 LDR   R1 R4 #3
(3113) 7303  0111001100000011 ( 305)                 STR   R1 R4 #3
(3114) 6302  0110001100000010 ( 306)                 LDR   R1 R4 #2
(3115) 7302  0111001100000010 ( 308)                 STR   R1 R4 #2
(3116) 5260  0101001001100000 ( 309)                 AND   R1 R1 #0
(3117) 7305  0111001100000101 ( 310)                 STR   R1 R4 #5
(3118) 6F01  0110111100000001 ( 311)                 LDR   R7 R4 #1
(3119) 5260  0101001001100000 ( 312)                 AND   R1 R1 #0
(311A) 127F  0001001001111111 ( 313)                 ADD   R1 R1 #-1
(311B) 7301  0111001100000001 ( 314)                 STR   R1 R4 #1
(311C) 1921  0001100100100001 ( 315)                 ADD   R4 R4 #1
(311D) 41C0  0100000111000000 ( 316)                 JSRR  R7
(311E) 7101  0111000100000001 ( 317)                 STR   R0 R4 #1
(311F) 6341  0110001101000001 ( 319)                 LDR   R1 R5 #1
(3120) 7301  0111001100000001 ( 320)                 STR   R1 R4 #1
(3121) E201  1110001000000001 ( 322)                 LEA   R1 x3123
(3122) 0E04  0000111000000100 ( 323)                 BRNZP LBL32
(3123) 0043  0000000001000011 ( 324)                 .FILL x0043
(3124) 0061  0000000001100001 ( 324)                 .FILL x0061
(3125) 0069  0000000001101001 ( 324)                 .FILL x0069
(3126) 0000  0000000000000000 ( 324)                 .FILL x0000
(3127) 7302  0111001100000010 ( 325) LBL32           STR   R1 R4 #2
(3128) 133E  0001001100111110 ( 326)                 ADD   R1 R4 #-2
(3129) 7303  0111001100000011 ( 327)                 STR   R1 R4 #3
(312A) 6F03  0110111100000011 ( 329)                 LDR   R7 R4 #3
(312B) 6FC0  0110111111000000 ( 330)                 LDR   R7 R7 #0
(312C) 7F03  0111111100000011 ( 331)                 STR   R7 R4 #3
(312D) 2201  0010001000000001 ( 333)                 LD    R1 x312F
(312E) 0E01  0000111000000001 ( 334)                 BRNZP LBL33
(312F) 0003  0000000000000011 ( 335)                 .FILL x0003
(3130) 7304  0111001100000100 ( 336) LBL33           STR   R1 R4 #4
(3131) 6504  0110010100000100 ( 337)                 LDR   R2 R4 #4
(3132) 6303  0110001100000011 ( 338)                 LDR   R1 R4 #3
(3133) 1242  0001001001000010 ( 339)                 ADD   R1 R1 R2
(3134) 7303  0111001100000011 ( 340)                 STR   R1 R4 #3
(3135) 2201  0010001000000001 ( 342)                 LD    R1 x3137
(3136) 0E01  0000111000000001 ( 343)                 BRNZP LBL34
(3137) D120  1101000100100000 ( 344)                 .FILL xD120
(3138) 7304  0111001100000100 ( 345) LBL34           STR   R1 R4 #4
(3139) 6504  0110010100000100 ( 346)                 LDR   R2 R4 #4
(313A) 6303  0110001100000011 ( 347)                 LDR   R1 R4 #3
(313B) 7440  0111010001000000 ( 348)                 STR   R2 R1 #0
(313C) 7503  0111010100000011 ( 349)                 STR   R2 R4 #3
(313D) 6303  0110001100000011 ( 351)                 LDR   R1 R4 #3
(313E) 7303  0111001100000011 ( 353)                 STR   R1 R4 #3
(313F) 6302  0110001100000010 ( 354)                 LDR   R1 R4 #2
(3140) 7302  0111001100000010 ( 356)                 STR   R1 R4 #2
(3141) 5260  0101001001100000 ( 357)                 AND   R1 R1 #0
(3142) 7305  0111001100000101 ( 358)                 STR   R1 R4 #5
(3143) 6F01  0110111100000001 ( 359)                 LDR   R7 R4 #1
(3144) 5260  0101001001100000 ( 360)                 AND   R1 R1 #0
(3145) 127F  0001001001111111 ( 361)                 ADD   R1 R1 #-1
(3146) 7301  0111001100000001 ( 362)                 STR   R1 R4 #1
(3147) 1921  0001100100100001 ( 363)                 ADD   R4 R4 #1
(3148) 41C0  0100000111000000 ( 364)                 JSRR  R7
(3149) 7101  0111000100000001 ( 365)                 STR   R0 R4 #1
(314A) 133E  0001001100111110 ( 367)                 ADD   R1 R4 #-2
(314B) 7301  0111001100000001 ( 368)                 STR   R1 R4 #1
(314C) 2201  0010001000000001 ( 370)                 LD    R1 x314E
(314D) 0E01  0000111000000001 ( 371)                 BRNZP LBL35
(314E) 4200  0100001000000000 ( 372)                 .FILL x4200
(314F) 7302  0111001100000010 ( 373) LBL35           STR   R1 R4 #2
(3150) 6502  0110010100000010 ( 374)                 LDR   R2 R4 #2
(3151) 6301  0110001100000001 ( 375)                 LDR   R1 R4 #1
(3152) 7440  0111010001000000 ( 376)                 STR   R2 R1 #0
(3153) 7501  0111010100000001 ( 377)                 STR   R2 R4 #1
(3154) 133E  0001001100111110 ( 379)                 ADD   R1 R4 #-2
(3155) 7301  0111001100000001 ( 380)                 STR   R1 R4 #1
(3156) 6F01  0110111100000001 ( 382)                 LDR   R7 R4 #1
(3157) 6FC0  0110111111000000 ( 383)                 LDR   R7 R7 #0
(3158) 7F01  0111111100000001 ( 384)                 STR   R7 R4 #1
(3159) 2201  0010001000000001 ( 386)                 LD    R1 x315B
(315A) 0E01  0000111000000001 ( 387)                 BRNZP LBL36
(315B) 0000  0000000000000000 ( 388)                 .FILL x0000
(315C) 7302  0111001100000010 ( 389) LBL36           STR   R1 R4 #2
(315D) 6502  0110010100000010 ( 390)                 LDR   R2 R4 #2
(315E) 6301  0110001100000001 ( 391)                 LDR   R1 R4 #1
(315F) 1242  0001001001000010 ( 392)                 ADD   R1 R1 R2
(3160) 7301  0111001100000001 ( 393)                 STR   R1 R4 #1
(3161) 2201  0010001000000001 ( 395)                 LD    R1 x3163
(3162) 0E01  0000111000000001 ( 396)                 BRNZP LBL37
(3163) 4300  0100001100000000 ( 397)                 .FILL x4300
(3164) 7302  0111001100000010 ( 398) LBL37           STR   R1 R4 #2
(3165) 6502  0110010100000010 ( 399)                 LDR   R2 R4 #2
(3166) 6301  0110001100000001 ( 400)                 LDR   R1 R4 #1
(3167) 7440  0111010001000000 ( 401)                 STR   R2 R1 #0
(3168) 7501  0111010100000001 ( 402)                 STR   R2 R4 #1
(3169) 6341  0110001101000001 ( 404)                 LDR   R1 R5 #1
(316A) 7301  0111001100000001 ( 405)                 STR   R1 R4 #1
(316B) E201  1110001000000001 ( 407)                 LEA   R1 x316D
(316C) 0E04  0000111000000100 ( 408)                 BRNZP LBL38
(316D) 0035  0000000000110101 ( 409)                 .FILL x0035
(316E) 0031  0000000000110001 ( 409)                 .FILL x0031
(316F) 0032  0000000000110010 ( 409)                 .FILL x0032
(3170) 0000  0000000000000000 ( 409)                 .FILL x0000
(3171) 7302  0111001100000010 ( 410) LBL38           STR   R1 R4 #2
(3172) 133E  0001001100111110 ( 411)                 ADD   R1 R4 #-2
(3173) 7303  0111001100000011 ( 412)                 STR   R1 R4 #3
(3174) 6F03  0110111100000011 ( 414)                 LDR   R7 R4 #3
(3175) 6FC0  0110111111000000 ( 415)                 LDR   R7 R7 #0
(3176) 7F03  0111111100000011 ( 416)                 STR   R7 R4 #3
(3177) 2201  0010001000000001 ( 418)                 LD    R1 x3179
(3178) 0E01  0000111000000001 ( 419)                 BRNZP LBL39
(3179) 0001  0000000000000001 ( 420)                 .FILL x0001
(317A) 7304  0111001100000100 ( 421) LBL39           STR   R1 R4 #4
(317B) 6504  0110010100000100 ( 422)                 LDR   R2 R4 #4
(317C) 6303  0110001100000011 ( 423)                 LDR   R1 R4 #3
(317D) 1242  0001001001000010 ( 424)                 ADD   R1 R1 R2
(317E) 7303  0111001100000011 ( 425)                 STR   R1 R4 #3
(317F) 2201  0010001000000001 ( 427)                 LD    R1 x3181
(3180) 0E01  0000111000000001 ( 428)                 BRNZP LBL40
(3181) D200  1101001000000000 ( 429)                 .FILL xD200
(3182) 7304  0111001100000100 ( 430) LBL40           STR   R1 R4 #4
(3183) 6504  0110010100000100 ( 431)                 LDR   R2 R4 #4
(3184) 6303  0110001100000011 ( 432)                 LDR   R1 R4 #3
(3185) 7440  0111010001000000 ( 433)                 STR   R2 R1 #0
(3186) 7503  0111010100000011 ( 434)                 STR   R2 R4 #3
(3187) 6303  0110001100000011 ( 436)                 LDR   R1 R4 #3
(3188) 7303  0111001100000011 ( 438)                 STR   R1 R4 #3
(3189) 6302  0110001100000010 ( 439)                 LDR   R1 R4 #2
(318A) 7302  0111001100000010 ( 441)                 STR   R1 R4 #2
(318B) 5260  0101001001100000 ( 442)                 AND   R1 R1 #0
(318C) 7305  0111001100000101 ( 443)                 STR   R1 R4 #5
(318D) 6F01  0110111100000001 ( 444)                 LDR   R7 R4 #1
(318E) 5260  0101001001100000 ( 445)                 AND   R1 R1 #0
(318F) 127F  0001001001111111 ( 446)                 ADD   R1 R1 #-1
(3190) 7301  0111001100000001 ( 447)                 STR   R1 R4 #1
(3191) 1921  0001100100100001 ( 448)                 ADD   R4 R4 #1
(3192) 41C0  0100000111000000 ( 449)                 JSRR  R7
(3193) 7101  0111000100000001 ( 450)                 STR   R0 R4 #1
(3194) 6341  0110001101000001 ( 452)                 LDR   R1 R5 #1
(3195) 7301  0111001100000001 ( 453)                 STR   R1 R4 #1
(3196) E201  1110001000000001 ( 455)                 LEA   R1 x3198
(3197) 0E09  0000111000001001 ( 456)                 BRNZP LBL41
(3198) 0051  0000000001010001 ( 457)                 .FILL x0051
(3199) 0069  0000000001101001 ( 457)                 .FILL x0069
(319A) 006E  0000000001101110 ( 457)                 .FILL x006E
(319B) 0067  0000000001100111 ( 457)                 .FILL x0067
(319C) 0073  0000000001110011 ( 457)                 .FILL x0073
(319D) 006F  0000000001101111 ( 457)                 .FILL x006F
(319E) 006E  0000000001101110 ( 457)                 .FILL x006E
(319F) 0067  0000000001100111 ( 457)                 .FILL x0067
(31A0) 0000  0000000000000000 ( 457)                 .FILL x0000
(31A1) 7302  0111001100000010 ( 458) LBL41           STR   R1 R4 #2
(31A2) 133E  0001001100111110 ( 459)                 ADD   R1 R4 #-2
(31A3) 7303  0111001100000011 ( 460)                 STR   R1 R4 #3
(31A4) 6F03  0110111100000011 ( 462)                 LDR   R7 R4 #3
(31A5) 6FC0  0110111111000000 ( 463)                 LDR   R7 R7 #0
(31A6) 7F03  0111111100000011 ( 464)                 STR   R7 R4 #3
(31A7) 2201  0010001000000001 ( 466)                 LD    R1 x31A9
(31A8) 0E01  0000111000000001 ( 467)                 BRNZP LBL42
(31A9) 0002  0000000000000010 ( 468)                 .FILL x0002
(31AA) 7304  0111001100000100 ( 469) LBL42           STR   R1 R4 #4
(31AB) 6504  0110010100000100 ( 470)                 LDR   R2 R4 #4
(31AC) 6303  0110001100000011 ( 471)                 LDR   R1 R4 #3
(31AD) 1242  0001001001000010 ( 472)                 ADD   R1 R1 R2
(31AE) 7303  0111001100000011 ( 473)                 STR   R1 R4 #3
(31AF) 2201  0010001000000001 ( 475)                 LD    R1 x31B1
(31B0) 0E01  0000111000000001 ( 476)                 BRNZP LBL43
(31B1) D210  1101001000010000 ( 477)                 .FILL xD210
(31B2) 7304  0111001100000100 ( 478) LBL43           STR   R1 R4 #4
(31B3) 6504  0110010100000100 ( 479)                 LDR   R2 R4 #4
(31B4) 6303  0110001100000011 ( 480)                 LDR   R1 R4 #3
(31B5) 7440  0111010001000000 ( 481)                 STR   R2 R1 #0
(31B6) 7503  0111010100000011 ( 482)                 STR   R2 R4 #3
(31B7) 6303  0110001100000011 ( 484)                 LDR   R1 R4 #3
(31B8) 7303  0111001100000011 ( 486)                 STR   R1 R4 #3
(31B9) 6302  0110001100000010 ( 487)                 LDR   R1 R4 #2
(31BA) 7302  0111001100000010 ( 489)                 STR   R1 R4 #2
(31BB) 5260  0101001001100000 ( 490)                 AND   R1 R1 #0
(31BC) 7305  0111001100000101 ( 491)                 STR   R1 R4 #5
(31BD) 6F01  0110111100000001 ( 492)                 LDR   R7 R4 #1
(31BE) 5260  0101001001100000 ( 493)                 AND   R1 R1 #0
(31BF) 127F  0001001001111111 ( 494)                 ADD   R1 R1 #-1
(31C0) 7301  0111001100000001 ( 495)                 STR   R1 R4 #1
(31C1) 1921  0001100100100001 ( 496)                 ADD   R4 R4 #1
(31C2) 41C0  0100000111000000 ( 497)                 JSRR  R7
(31C3) 7101  0111000100000001 ( 498)                 STR   R0 R4 #1
(31C4) 6341  0110001101000001 ( 500)                 LDR   R1 R5 #1
(31C5) 7301  0111001100000001 ( 501)                 STR   R1 R4 #1
(31C6) E201  1110001000000001 ( 503)                 LEA   R1 x31C8
(31C7) 0E04  0000111000000100 ( 504)                 BRNZP LBL44
(31C8) 0053  0000000001010011 ( 505)                 .FILL x0053
(31C9) 0068  0000000001101000 ( 505)                 .FILL x0068
(31CA) 0069  0000000001101001 ( 505)                 .FILL x0069
(31CB) 0000  0000000000000000 ( 505)                 .FILL x0000
(31CC) 7302  0111001100000010 ( 506) LBL44           STR   R1 R4 #2
(31CD) 133E  0001001100111110 ( 507)                 ADD   R1 R4 #-2
(31CE) 7303  0111001100000011 ( 508)                 STR   R1 R4 #3
(31CF) 6F03  0110111100000011 ( 510)                 LDR   R7 R4 #3
(31D0) 6FC0  0110111111000000 ( 511)                 LDR   R7 R7 #0
(31D1) 7F03  0111111100000011 ( 512)                 STR   R7 R4 #3
(31D2) 2201  0010001000000001 ( 514)                 LD    R1 x31D4
(31D3) 0E01  0000111000000001 ( 515)                 BRNZP LBL45
(31D4) 0003  0000000000000011 ( 516)                 .FILL x0003
(31D5) 7304  0111001100000100 ( 517) LBL45           STR   R1 R4 #4
(31D6) 6504  0110010100000100 ( 518)                 LDR   R2 R4 #4
(31D7) 6303  0110001100000011 ( 519)                 LDR   R1 R4 #3
(31D8) 1242  0001001001000010 ( 520)                 ADD   R1 R1 R2
(31D9) 7303  0111001100000011 ( 521)                 STR   R1 R4 #3
(31DA) 2201  0010001000000001 ( 523)                 LD    R1 x31DC
(31DB) 0E01  0000111000000001 ( 524)                 BRNZP LBL46
(31DC) D220  1101001000100000 ( 525)                 .FILL xD220
(31DD) 7304  0111001100000100 ( 526) LBL46           STR   R1 R4 #4
(31DE) 6504  0110010100000100 ( 527)                 LDR   R2 R4 #4
(31DF) 6303  0110001100000011 ( 528)                 LDR   R1 R4 #3
(31E0) 7440  0111010001000000 ( 529)                 STR   R2 R1 #0
(31E1) 7503  0111010100000011 ( 530)                 STR   R2 R4 #3
(31E2) 6303  0110001100000011 ( 532)                 LDR   R1 R4 #3
(31E3) 7303  0111001100000011 ( 534)                 STR   R1 R4 #3
(31E4) 6302  0110001100000010 ( 535)                 LDR   R1 R4 #2
(31E5) 7302  0111001100000010 ( 537)                 STR   R1 R4 #2
(31E6) 5260  0101001001100000 ( 538)                 AND   R1 R1 #0
(31E7) 7305  0111001100000101 ( 539)                 STR   R1 R4 #5
(31E8) 6F01  0110111100000001 ( 540)                 LDR   R7 R4 #1
(31E9) 5260  0101001001100000 ( 541)                 AND   R1 R1 #0
(31EA) 127F  0001001001111111 ( 542)                 ADD   R1 R1 #-1
(31EB) 7301  0111001100000001 ( 543)                 STR   R1 R4 #1
(31EC) 1921  0001100100100001 ( 544)                 ADD   R4 R4 #1
(31ED) 41C0  0100000111000000 ( 545)                 JSRR  R7
(31EE) 7101  0111000100000001 ( 546)                 STR   R0 R4 #1
(31EF) 2201  0010001000000001 ( 548)                 LD    R1 x31F1
(31F0) 0E01  0000111000000001 ( 549)                 BRNZP LBL47
(31F1) F000  1111000000000000 ( 550)                 .FILL xF000
(31F2) 7301  0111001100000001 ( 551) LBL47           STR   R1 R4 #1
(31F3) 6301  0110001100000001 ( 552)                 LDR   R1 R4 #1
(31F4) 733D  0111001100111101 ( 553)                 STR   R1 R4 #-3
(31F5) E201  1110001000000001 ( 554)                 LEA   R1 x31F7
(31F6) 0E1E  0000111000011110 ( 555)                 BRNZP LBL48
(31F7) 0054  0000000001010100 ( 556)                 .FILL x0054
(31F8) 0079  0000000001111001 ( 556)                 .FILL x0079
(31F9) 0070  0000000001110000 ( 556)                 .FILL x0070
(31FA) 0065  0000000001100101 ( 556)                 .FILL x0065
(31FB) 0020  0000000000100000 ( 556)                 .FILL x0020
(31FC) 0061  0000000001100001 ( 556)                 .FILL x0061
(31FD) 0020  0000000000100000 ( 556)                 .FILL x0020
(31FE) 006E  0000000001101110 ( 556)                 .FILL x006E
(31FF) 0061  0000000001100001 ( 556)                 .FILL x0061
(3200) 006D  0000000001101101 ( 556)                 .FILL x006D
(3201) 0065  0000000001100101 ( 556)                 .FILL x0065
(3202) 0020  0000000000100000 ( 556)                 .FILL x0020
(3203) 0061  0000000001100001 ( 556)                 .FILL x0061
(3204) 006E  0000000001101110 ( 556)                 .FILL x006E
(3205) 0064  0000000001100100 ( 556)                 .FILL x0064
(3206) 0020  0000000000100000 ( 556)                 .FILL x0020
(3207) 0070  0000000001110000 ( 556)                 .FILL x0070
(3208) 0072  0000000001110010 ( 556)                 .FILL x0072
(3209) 0065  0000000001100101 ( 556)                 .FILL x0065
(320A) 0073  0000000001110011 ( 556)                 .FILL x0073
(320B) 0073  0000000001110011 ( 556)                 .FILL x0073
(320C) 0020  0000000000100000 ( 556)                 .FILL x0020
(320D) 0045  0000000001000101 ( 556)                 .FILL x0045
(320E) 006E  0000000001101110 ( 556)                 .FILL x006E
(320F) 0074  0000000001110100 ( 556)                 .FILL x0074
(3210) 0065  0000000001100101 ( 556)                 .FILL x0065
(3211) 0072  0000000001110010 ( 556)                 .FILL x0072
(3212) 003A  0000000000111010 ( 556)                 .FILL x003A
(3213) 0020  0000000000100000 ( 556)                 .FILL x0020
(3214) 0000  0000000000000000 ( 556)                 .FILL x0000
(3215) 7301  0111001100000001 ( 557) LBL48           STR   R1 R4 #1
(3216) 6101  0110000100000001 ( 558)                 LDR   R0 R4 #1
(3217) F022  1111000000100010 ( 559)                 TRAP  x22
(3218) 133D  0001001100111101 ( 560)                 ADD   R1 R4 #-3
(3219) 7301  0111001100000001 ( 561)                 STR   R1 R4 #1
(321A) 6F01  0110111100000001 ( 563)                 LDR   R7 R4 #1
(321B) 6FC0  0110111111000000 ( 564)                 LDR   R7 R7 #0
(321C) 7F01  0111111100000001 ( 565)                 STR   R7 R4 #1
(321D) 6101  0110000100000001 ( 567)                 LDR   R0 R4 #1
(321E) 6FBC  0110111110111100 ( 568)                 LDR   R7 R6 #-4
(321F) 41C0  0100000111000000 ( 569)                 JSRR  R7
(3220) 2201  0010001000000001 ( 570)                 LD    R1 x3222
(3221) 0E01  0000111000000001 ( 571)                 BRNZP LBL49
(3222) 0000  0000000000000000 ( 572)                 .FILL x0000
(3223) 7301  0111001100000001 ( 573) LBL49           STR   R1 R4 #1
(3224) 6301  0110001100000001 ( 574)                 LDR   R1 R4 #1
(3225) 733C  0111001100111100 ( 575)                 STR   R1 R4 #-4
(3226) 2201  0010001000000001 ( 576)                 LD    R1 x3228
(3227) 0E01  0000111000000001 ( 577)                 BRNZP LBL52
(3228) 4000  0100000000000000 ( 578)                 .FILL x4000
(3229) 7301  0111001100000001 ( 579) LBL52           STR   R1 R4 #1
(322A) 6301  0110001100000001 ( 580)                 LDR   R1 R4 #1
(322B) 733B  0111001100111011 ( 581)                 STR   R1 R4 #-5
(322C) 5020  0101000000100000 ( 582)                 AND   R0 R0 #0
(322D) 133B  0001001100111011 ( 584) LBL51           ADD   R1 R4 #-5
(322E) 7301  0111001100000001 ( 585)                 STR   R1 R4 #1
(322F) 6F01  0110111100000001 ( 587)                 LDR   R7 R4 #1
(3230) 6FC0  0110111111000000 ( 588)                 LDR   R7 R7 #0
(3231) 7F01  0111111100000001 ( 589)                 STR   R7 R4 #1
(3232) 2201  0010001000000001 ( 591)                 LD    R1 x3234
(3233) 0E01  0000111000000001 ( 592)                 BRNZP LBL53
(3234) 0000  0000000000000000 ( 593)                 .FILL x0000
(3235) 7302  0111001100000010 ( 594) LBL53           STR   R1 R4 #2
(3236) 6502  0110010100000010 ( 595)                 LDR   R2 R4 #2
(3237) 6301  0110001100000001 ( 596)                 LDR   R1 R4 #1
(3238) 94BF  1001010010111111 ( 597)                 NOT   R2 R2
(3239) 14A1  0001010010100001 ( 598)                 ADD   R2 R2 #1
(323A) 5020  0101000000100000 ( 599)                 AND   R0 R0 #0
(323B) 1242  0001001001000010 ( 600)                 ADD   R1 R1 R2
(323C) 0401  0000010000000001 ( 601)                 BRZ   LBL54
(323D) 1021  0001000000100001 ( 602)                 ADD   R0 R0 #1
(323E) 7101  0111000100000001 ( 603) LBL54           STR   R0 R4 #1
(323F) 6101  0110000100000001 ( 605)                 LDR   R0 R4 #1
(3240) 04BE  0000010010111110 ( 606)                 BRZ   LBL50
(3241) 133B  0001001100111011 ( 607)                 ADD   R1 R4 #-5
(3242) 7301  0111001100000001 ( 608)                 STR   R1 R4 #1
(3243) 6F01  0110111100000001 ( 610)                 LDR   R7 R4 #1
(3244) 6FC0  0110111111000000 ( 611)                 LDR   R7 R7 #0
(3245) 7F01  0111111100000001 ( 612)                 STR   R7 R4 #1
(3246) 2201  0010001000000001 ( 614)                 LD    R1 x3248
(3247) 0E01  0000111000000001 ( 615)                 BRNZP LBL55
(3248) 0001  0000000000000001 ( 616)                 .FILL x0001
(3249) 7302  0111001100000010 ( 617) LBL55           STR   R1 R4 #2
(324A) 6502  0110010100000010 ( 618)                 LDR   R2 R4 #2
(324B) 6301  0110001100000001 ( 619)                 LDR   R1 R4 #1
(324C) 1242  0001001001000010 ( 620)                 ADD   R1 R1 R2
(324D) 7301  0111001100000001 ( 621)                 STR   R1 R4 #1
(324E) 6F01  0110111100000001 ( 623)                 LDR   R7 R4 #1
(324F) 6FC0  0110111111000000 ( 624)                 LDR   R7 R7 #0
(3250) 7F01  0111111100000001 ( 625)                 STR   R7 R4 #1
(3251) 6301  0110001100000001 ( 627)                 LDR   R1 R4 #1
(3252) 733A  0111001100111010 ( 628)                 STR   R1 R4 #-6
(3253) 133B  0001001100111011 ( 629)                 ADD   R1 R4 #-5
(3254) 7301  0111001100000001 ( 630)                 STR   R1 R4 #1
(3255) 6F01  0110111100000001 ( 632)                 LDR   R7 R4 #1
(3256) 6FC0  0110111111000000 ( 633)                 LDR   R7 R7 #0
(3257) 7F01  0111111100000001 ( 634)                 STR   R7 R4 #1
(3258) 2201  0010001000000001 ( 636)                 LD    R1 x325A
(3259) 0E01  0000111000000001 ( 637)                 BRNZP LBL56
(325A) 0003  0000000000000011 ( 638)                 .FILL x0003
(325B) 7302  0111001100000010 ( 639) LBL56           STR   R1 R4 #2
(325C) 6502  0110010100000010 ( 640)                 LDR   R2 R4 #2
(325D) 6301  0110001100000001 ( 641)                 LDR   R1 R4 #1
(325E) 1242  0001001001000010 ( 642)                 ADD   R1 R1 R2
(325F) 7301  0111001100000001 ( 643)                 STR   R1 R4 #1
(3260) 6F01  0110111100000001 ( 645)                 LDR   R7 R4 #1
(3261) 6FC0  0110111111000000 ( 646)                 LDR   R7 R7 #0
(3262) 7F01  0111111100000001 ( 647)                 STR   R7 R4 #1
(3263) 6301  0110001100000001 ( 649)                 LDR   R1 R4 #1
(3264) 7339  0111001100111001 ( 650)                 STR   R1 R4 #-7
(3265) 133B  0001001100111011 ( 651)                 ADD   R1 R4 #-5
(3266) 7301  0111001100000001 ( 652)                 STR   R1 R4 #1
(3267) 6F01  0110111100000001 ( 654)                 LDR   R7 R4 #1
(3268) 6FC0  0110111111000000 ( 655)                 LDR   R7 R7 #0
(3269) 7F01  0111111100000001 ( 656)                 STR   R7 R4 #1
(326A) 2201  0010001000000001 ( 658)                 LD    R1 x326C
(326B) 0E01  0000111000000001 ( 659)                 BRNZP LBL57
(326C) 0002  0000000000000010 ( 660)                 .FILL x0002
(326D) 7302  0111001100000010 ( 661) LBL57           STR   R1 R4 #2
(326E) 6502  0110010100000010 ( 662)                 LDR   R2 R4 #2
(326F) 6301  0110001100000001 ( 663)                 LDR   R1 R4 #1
(3270) 1242  0001001001000010 ( 664)                 ADD   R1 R1 R2
(3271) 7301  0111001100000001 ( 665)                 STR   R1 R4 #1
(3272) 6F01  0110111100000001 ( 667)                 LDR   R7 R4 #1
(3273) 6FC0  0110111111000000 ( 668)                 LDR   R7 R7 #0
(3274) 7F01  0111111100000001 ( 669)                 STR   R7 R4 #1
(3275) 6301  0110001100000001 ( 671)                 LDR   R1 R4 #1
(3276) 7338  0111001100111000 ( 672)                 STR   R1 R4 #-8
(3277) 6340  0110001101000000 ( 673)                 LDR   R1 R5 #0
(3278) 7301  0111001100000001 ( 674)                 STR   R1 R4 #1
(3279) 133D  0001001100111101 ( 676)                 ADD   R1 R4 #-3
(327A) 7302  0111001100000010 ( 677)                 STR   R1 R4 #2
(327B) 6F02  0110111100000010 ( 679)                 LDR   R7 R4 #2
(327C) 6FC0  0110111111000000 ( 680)                 LDR   R7 R7 #0
(327D) 7F02  0111111100000010 ( 681)                 STR   R7 R4 #2
(327E) 1339  0001001100111001 ( 683)                 ADD   R1 R4 #-7
(327F) 7303  0111001100000011 ( 684)                 STR   R1 R4 #3
(3280) 6F03  0110111100000011 ( 686)                 LDR   R7 R4 #3
(3281) 6FC0  0110111111000000 ( 687)                 LDR   R7 R7 #0
(3282) 7F03  0111111100000011 ( 688)                 STR   R7 R4 #3
(3283) 6303  0110001100000011 ( 690)                 LDR   R1 R4 #3
(3284) 7303  0111001100000011 ( 692)                 STR   R1 R4 #3
(3285) 6302  0110001100000010 ( 693)                 LDR   R1 R4 #2
(3286) 7302  0111001100000010 ( 695)                 STR   R1 R4 #2
(3287) 5260  0101001001100000 ( 696)                 AND   R1 R1 #0
(3288) 7305  0111001100000101 ( 697)                 STR   R1 R4 #5
(3289) 6F01  0110111100000001 ( 698)                 LDR   R7 R4 #1
(328A) 5260  0101001001100000 ( 699)                 AND   R1 R1 #0
(328B) 127F  0001001001111111 ( 700)                 ADD   R1 R1 #-1
(328C) 7301  0111001100000001 ( 701)                 STR   R1 R4 #1
(328D) 1921  0001100100100001 ( 702)                 ADD   R4 R4 #1
(328E) 41C0  0100000111000000 ( 703)                 JSRR  R7
(328F) 7101  0111000100000001 ( 704)                 STR   R0 R4 #1
(3290) 5FE0  0101111111100000 ( 706)                 AND   R7 R7 #0
(3291) 6301  0110001100000001 ( 707)                 LDR   R1 R4 #1
(3292) 0A01  0000101000000001 ( 708)                 BRNP  LBL58
(3293) 1FE1  0001111111100001 ( 709)                 ADD   R7 R7 #1
(3294) 7F01  0111111100000001 ( 711) LBL58           STR   R7 R4 #1
(3295) 6101  0110000100000001 ( 713)                 LDR   R0 R4 #1
(3296) 0A23  0000101000100011 ( 714)                 BRNP  LBL59
(3297) 6340  0110001101000000 ( 715)                 LDR   R1 R5 #0
(3298) 7301  0111001100000001 ( 716)                 STR   R1 R4 #1
(3299) 133D  0001001100111101 ( 718)                 ADD   R1 R4 #-3
(329A) 7302  0111001100000010 ( 719)                 STR   R1 R4 #2
(329B) 6F02  0110111100000010 ( 721)                 LDR   R7 R4 #2
(329C) 6FC0  0110111111000000 ( 722)                 LDR   R7 R7 #0
(329D) 7F02  0111111100000010 ( 723)                 STR   R7 R4 #2
(329E) 1338  0001001100111000 ( 725)                 ADD   R1 R4 #-8
(329F) 7303  0111001100000011 ( 726)                 STR   R1 R4 #3
(32A0) 6F03  0110111100000011 ( 728)                 LDR   R7 R4 #3
(32A1) 6FC0  0110111111000000 ( 729)                 LDR   R7 R7 #0
(32A2) 7F03  0111111100000011 ( 730)                 STR   R7 R4 #3
(32A3) 6303  0110001100000011 ( 732)                 LDR   R1 R4 #3
(32A4) 7303  0111001100000011 ( 734)                 STR   R1 R4 #3
(32A5) 6302  0110001100000010 ( 735)                 LDR   R1 R4 #2
(32A6) 7302  0111001100000010 ( 737)                 STR   R1 R4 #2
(32A7) 5260  0101001001100000 ( 738)                 AND   R1 R1 #0
(32A8) 7305  0111001100000101 ( 739)                 STR   R1 R4 #5
(32A9) 6F01  0110111100000001 ( 740)                 LDR   R7 R4 #1
(32AA) 5260  0101001001100000 ( 741)                 AND   R1 R1 #0
(32AB) 127F  0001001001111111 ( 742)                 ADD   R1 R1 #-1
(32AC) 7301  0111001100000001 ( 743)                 STR   R1 R4 #1
(32AD) 1921  0001100100100001 ( 744)                 ADD   R4 R4 #1
(32AE) 41C0  0100000111000000 ( 745)                 JSRR  R7
(32AF) 7101  0111000100000001 ( 746)                 STR   R0 R4 #1
(32B0) 5FE0  0101111111100000 ( 748)                 AND   R7 R7 #0
(32B1) 6301  0110001100000001 ( 749)                 LDR   R1 R4 #1
(32B2) 0A01  0000101000000001 ( 750)                 BRNP  LBL61
(32B3) 1FE1  0001111111100001 ( 751)                 ADD   R7 R7 #1
(32B4) 7F01  0111111100000001 ( 753) LBL61           STR   R7 R4 #1
(32B5) 6101  0110000100000001 ( 755)                 LDR   R0 R4 #1
(32B6) 0A03  0000101000000011 ( 756)                 BRNP  LBL59
(32B7) 5260  0101001001100000 ( 757)                 AND   R1 R1 #0
(32B8) 7301  0111001100000001 ( 758)                 STR   R1 R4 #1
(32B9) 0E03  0000111000000011 ( 760)                 BRNZP LBL60
(32BA) 5260  0101001001100000 ( 762) LBL59           AND   R1 R1 #0
(32BB) 1261  0001001001100001 ( 763)                 ADD   R1 R1 #1
(32BC) 7301  0111001100000001 ( 764)                 STR   R1 R4 #1
(32BD) 6101  0110000100000001 ( 767) LBL60           LDR   R0 R4 #1
(32BE) 0431  0000010000110001 ( 768)                 BRZ   LBL62
(32BF) 1339  0001001100111001 ( 769)                 ADD   R1 R4 #-7
(32C0) 7301  0111001100000001 ( 770)                 STR   R1 R4 #1
(32C1) 6F01  0110111100000001 ( 772)                 LDR   R7 R4 #1
(32C2) 6FC0  0110111111000000 ( 773)                 LDR   R7 R7 #0
(32C3) 7F01  0111111100000001 ( 774)                 STR   R7 R4 #1
(32C4) 6101  0110000100000001 ( 776)                 LDR   R0 R4 #1
(32C5) F022  1111000000100010 ( 777)                 TRAP  x22
(32C6) E201  1110001000000001 ( 778)                 LEA   R1 x32C8
(32C7) 0E02  0000111000000010 ( 779)                 BRNZP LBL63
(32C8) 0020  0000000000100000 ( 780)                 .FILL x0020
(32C9) 0000  0000000000000000 ( 780)                 .FILL x0000
(32CA) 7301  0111001100000001 ( 781) LBL63           STR   R1 R4 #1
(32CB) 6101  0110000100000001 ( 782)                 LDR   R0 R4 #1
(32CC) F022  1111000000100010 ( 783)                 TRAP  x22
(32CD) 1338  0001001100111000 ( 784)                 ADD   R1 R4 #-8
(32CE) 7301  0111001100000001 ( 785)                 STR   R1 R4 #1
(32CF) 6F01  0110111100000001 ( 787)                 LDR   R7 R4 #1
(32D0) 6FC0  0110111111000000 ( 788)                 LDR   R7 R7 #0
(32D1) 7F01  0111111100000001 ( 789)                 STR   R7 R4 #1
(32D2) 6101  0110000100000001 ( 791)                 LDR   R0 R4 #1
(32D3) F022  1111000000100010 ( 792)                 TRAP  x22
(32D4) E201  1110001000000001 ( 793)                 LEA   R1 x32D6
(32D5) 0E02  0000111000000010 ( 794)                 BRNZP LBL64
(32D6) 0020  0000000000100000 ( 795)                 .FILL x0020
(32D7) 0000  0000000000000000 ( 795)                 .FILL x0000
(32D8) 7301  0111001100000001 ( 796) LBL64           STR   R1 R4 #1
(32D9) 6101  0110000100000001 ( 797)                 LDR   R0 R4 #1
(32DA) F022  1111000000100010 ( 798)                 TRAP  x22
(32DB) 133A  0001001100111010 ( 799)                 ADD   R1 R4 #-6
(32DC) 7301  0111001100000001 ( 800)                 STR   R1 R4 #1
(32DD) 6F01  0110111100000001 ( 802)                 LDR   R7 R4 #1
(32DE) 6FC0  0110111111000000 ( 803)                 LDR   R7 R7 #0
(32DF) 7F01  0111111100000001 ( 804)                 STR   R7 R4 #1
(32E0) 6101  0110000100000001 ( 806)                 LDR   R0 R4 #1
(32E1) F022  1111000000100010 ( 807)                 TRAP  x22
(32E2) E201  1110001000000001 ( 808)                 LEA   R1 x32E4
(32E3) 0E02  0000111000000010 ( 809)                 BRNZP LBL65
(32E4) 000A  0000000000001010 ( 810)                 .FILL x000A
(32E5) 0000  0000000000000000 ( 810)                 .FILL x0000
(32E6) 7301  0111001100000001 ( 811) LBL65           STR   R1 R4 #1
(32E7) 6101  0110000100000001 ( 812)                 LDR   R0 R4 #1
(32E8) F022  1111000000100010 ( 813)                 TRAP  x22
(32E9) 133C  0001001100111100 ( 814)                 ADD   R1 R4 #-4
(32EA) 7301  0111001100000001 ( 815)                 STR   R1 R4 #1
(32EB) 6301  0110001100000001 ( 817)                 LDR   R1 R4 #1
(32EC) 6440  0110010001000000 ( 818)                 LDR   R2 R1 #0
(32ED) 7501  0111010100000001 ( 819)                 STR   R2 R4 #1
(32EE) 14A1  0001010010100001 ( 821)                 ADD   R2 R2 #1
(32EF) 7440  0111010001000000 ( 822)                 STR   R2 R1 #0
(32F0) 133B  0001001100111011 ( 824) LBL62           ADD   R1 R4 #-5
(32F1) 7301  0111001100000001 ( 825)                 STR   R1 R4 #1
(32F2) 133B  0001001100111011 ( 827)                 ADD   R1 R4 #-5
(32F3) 7302  0111001100000010 ( 828)                 STR   R1 R4 #2
(32F4) 6F02  0110111100000010 ( 830)                 LDR   R7 R4 #2
(32F5) 6FC0  0110111111000000 ( 831)                 LDR   R7 R7 #0
(32F6) 7F02  0111111100000010 ( 832)                 STR   R7 R4 #2
(32F7) 6F02  0110111100000010 ( 834)                 LDR   R7 R4 #2
(32F8) 6FC0  0110111111000000 ( 835)                 LDR   R7 R7 #0
(32F9) 7F02  0111111100000010 ( 836)                 STR   R7 R4 #2
(32FA) 6502  0110010100000010 ( 838)                 LDR   R2 R4 #2
(32FB) 6301  0110001100000001 ( 839)                 LDR   R1 R4 #1
(32FC) 7440  0111010001000000 ( 840)                 STR   R2 R1 #0
(32FD) 7501  0111010100000001 ( 841)                 STR   R2 R4 #1
(32FE) 0F2E  0000111100101110 ( 843)                 BRNZP LBL51
(32FF) 133C  0001001100111100 ( 845) LBL50           ADD   R1 R4 #-4
(3300) 7301  0111001100000001 ( 846)                 STR   R1 R4 #1
(3301) 6F01  0110111100000001 ( 848)                 LDR   R7 R4 #1
(3302) 6FC0  0110111111000000 ( 849)                 LDR   R7 R7 #0
(3303) 7F01  0111111100000001 ( 850)                 STR   R7 R4 #1
(3304) 5FE0  0101111111100000 ( 852)                 AND   R7 R7 #0
(3305) 6301  0110001100000001 ( 853)                 LDR   R1 R4 #1
(3306) 0A01  0000101000000001 ( 854)                 BRNP  LBL66
(3307) 1FE1  0001111111100001 ( 855)                 ADD   R7 R7 #1
(3308) 7F01  0111111100000001 ( 857) LBL66           STR   R7 R4 #1
(3309) 6101  0110000100000001 ( 859)                 LDR   R0 R4 #1
(330A) 040F  0000010000001111 ( 860)                 BRZ   LBL67
(330B) E201  1110001000000001 ( 861)                 LEA   R1 x330D
(330C) 0E0A  0000111000001010 ( 862)                 BRNZP LBL68
(330D) 004E  0000000001001110 ( 863)                 .FILL x004E
(330E) 006F  0000000001101111 ( 863)                 .FILL x006F
(330F) 0020  0000000000100000 ( 863)                 .FILL x0020
(3310) 0045  0000000001000101 ( 863)                 .FILL x0045
(3311) 006E  0000000001101110 ( 863)                 .FILL x006E
(3312) 0074  0000000001110100 ( 863)                 .FILL x0074
(3313) 0072  0000000001110010 ( 863)                 .FILL x0072
(3314) 0079  0000000001111001 ( 863)                 .FILL x0079
(3315) 000A  0000000000001010 ( 863)                 .FILL x000A
(3316) 0000  0000000000000000 ( 863)                 .FILL x0000
(3317) 7301  0111001100000001 ( 864) LBL68           STR   R1 R4 #1
(3318) 6101  0110000100000001 ( 865)                 LDR   R0 R4 #1
(3319) F022  1111000000100010 ( 866)                 TRAP  x22
(331A) 5020  0101000000100000 ( 868) LBL67           AND   R0 R0 #0
(331B) F025  1111000000100101 ( 869) Qmain           TRAP  x25
(331C) 6300  0110001100000000 ( 874) Fnstrcmp        LDR   R1 R4 #0
(331D) 1301  0001001100000001 ( 875)                 ADD   R1 R4 R1
(331E) 7304  0111001100000100 ( 876)                 STR   R1 R4 #4
(331F) 7F03  0111111100000011 ( 877)                 STR   R7 R4 #3
(3320) 1924  0001100100100100 ( 878)                 ADD   R4 R4 #4
(3321) 5020  0101000000100000 ( 879)                 AND   R0 R0 #0
(3322) 133E  0001001100111110 ( 881) LBL1            ADD   R1 R4 #-2
(3323) 7301  0111001100000001 ( 882)                 STR   R1 R4 #1
(3324) 6F01  0110111100000001 ( 884)                 LDR   R7 R4 #1
(3325) 6FC0  0110111111000000 ( 885)                 LDR   R7 R7 #0
(3326) 7F01  0111111100000001 ( 886)                 STR   R7 R4 #1
(3327) 6F01  0110111100000001 ( 888)                 LDR   R7 R4 #1
(3328) 6FC0  0110111111000000 ( 889)                 LDR   R7 R7 #0
(3329) 7F01  0111111100000001 ( 890)                 STR   R7 R4 #1
(332A) 2201  0010001000000001 ( 892)                 LD    R1 x332C
(332B) 0E01  0000111000000001 ( 893)                 BRNZP LBL2
(332C) 0000  0000000000000000 ( 894)                 .FILL x0000
(332D) 7302  0111001100000010 ( 895) LBL2            STR   R1 R4 #2
(332E) 6502  0110010100000010 ( 896)                 LDR   R2 R4 #2
(332F) 6301  0110001100000001 ( 897)                 LDR   R1 R4 #1
(3330) 94BF  1001010010111111 ( 898)                 NOT   R2 R2
(3331) 14A1  0001010010100001 ( 899)                 ADD   R2 R2 #1
(3332) 5020  0101000000100000 ( 900)                 AND   R0 R0 #0
(3333) 1242  0001001001000010 ( 901)                 ADD   R1 R1 R2
(3334) 0401  0000010000000001 ( 902)                 BRZ   LBL3
(3335) 1021  0001000000100001 ( 903)                 ADD   R0 R0 #1
(3336) 7101  0111000100000001 ( 904) LBL3            STR   R0 R4 #1
(3337) 6101  0110000100000001 ( 906)                 LDR   R0 R4 #1
(3338) 041F  0000010000011111 ( 907)                 BRZ   LBL4
(3339) 133E  0001001100111110 ( 908)                 ADD   R1 R4 #-2
(333A) 7301  0111001100000001 ( 909)                 STR   R1 R4 #1
(333B) 6F01  0110111100000001 ( 911)                 LDR   R7 R4 #1
(333C) 6FC0  0110111111000000 ( 912)                 LDR   R7 R7 #0
(333D) 7F01  0111111100000001 ( 913)                 STR   R7 R4 #1
(333E) 6F01  0110111100000001 ( 915)                 LDR   R7 R4 #1
(333F) 6FC0  0110111111000000 ( 916)                 LDR   R7 R7 #0
(3340) 7F01  0111111100000001 ( 917)                 STR   R7 R4 #1
(3341) 133D  0001001100111101 ( 919)                 ADD   R1 R4 #-3
(3342) 7302  0111001100000010 ( 920)                 STR   R1 R4 #2
(3343) 6F02  0110111100000010 ( 922)                 LDR   R7 R4 #2
(3344) 6FC0  0110111111000000 ( 923)                 LDR   R7 R7 #0
(3345) 7F02  0111111100000010 ( 924)                 STR   R7 R4 #2
(3346) 6F02  0110111100000010 ( 926)                 LDR   R7 R4 #2
(3347) 6FC0  0110111111000000 ( 927)                 LDR   R7 R7 #0
(3348) 7F02  0111111100000010 ( 928)                 STR   R7 R4 #2
(3349) 6502  0110010100000010 ( 930)                 LDR   R2 R4 #2
(334A) 6301  0110001100000001 ( 931)                 LDR   R1 R4 #1
(334B) 94BF  1001010010111111 ( 932)                 NOT   R2 R2
(334C) 14A1  0001010010100001 ( 933)                 ADD   R2 R2 #1
(334D) 5020  0101000000100000 ( 934)                 AND   R0 R0 #0
(334E) 1242  0001001001000010 ( 935)                 ADD   R1 R1 R2
(334F) 0A01  0000101000000001 ( 936)                 BRNP  LBL6
(3350) 1021  0001000000100001 ( 937)                 ADD   R0 R0 #1
(3351) 7101  0111000100000001 ( 938) LBL6            STR   R0 R4 #1
(3352) 6101  0110000100000001 ( 940)                 LDR   R0 R4 #1
(3353) 0404  0000010000000100 ( 941)                 BRZ   LBL4
(3354) 5260  0101001001100000 ( 942)                 AND   R1 R1 #0
(3355) 1261  0001001001100001 ( 943)                 ADD   R1 R1 #1
(3356) 7301  0111001100000001 ( 944)                 STR   R1 R4 #1
(3357) 0E02  0000111000000010 ( 946)                 BRNZP LBL5
(3358) 5260  0101001001100000 ( 948) LBL4            AND   R1 R1 #0
(3359) 7301  0111001100000001 ( 949)                 STR   R1 R4 #1
(335A) 6101  0110000100000001 ( 952) LBL5            LDR   R0 R4 #1
(335B) 040F  0000010000001111 ( 953)                 BRZ   LBL0
(335C) 133E  0001001100111110 ( 954)                 ADD   R1 R4 #-2
(335D) 7301  0111001100000001 ( 955)                 STR   R1 R4 #1
(335E) 6301  0110001100000001 ( 957)                 LDR   R1 R4 #1
(335F) 6440  0110010001000000 ( 958)                 LDR   R2 R1 #0
(3360) 14A1  0001010010100001 ( 959)                 ADD   R2 R2 #1
(3361) 7501  0111010100000001 ( 960)                 STR   R2 R4 #1
(3362) 7440  0111010001000000 ( 962)                 STR   R2 R1 #0
(3363) 133D  0001001100111101 ( 963)                 ADD   R1 R4 #-3
(3364) 7301  0111001100000001 ( 964)                 STR   R1 R4 #1
(3365) 6301  0110001100000001 ( 966)                 LDR   R1 R4 #1
(3366) 6440  0110010001000000 ( 967)                 LDR   R2 R1 #0
(3367) 14A1  0001010010100001 ( 968)                 ADD   R2 R2 #1
(3368) 7501  0111010100000001 ( 969)                 STR   R2 R4 #1
(3369) 7440  0111010001000000 ( 971)                 STR   R2 R1 #0
(336A) 0FB7  0000111110110111 ( 972)                 BRNZP LBL1
(336B) 133E  0001001100111110 ( 974) LBL0            ADD   R1 R4 #-2
(336C) 7301  0111001100000001 ( 975)                 STR   R1 R4 #1
(336D) 6F01  0110111100000001 ( 977)                 LDR   R7 R4 #1
(336E) 6FC0  0110111111000000 ( 978)                 LDR   R7 R7 #0
(336F) 7F01  0111111100000001 ( 979)                 STR   R7 R4 #1
(3370) 6F01  0110111100000001 ( 981)                 LDR   R7 R4 #1
(3371) 6FC0  0110111111000000 ( 982)                 LDR   R7 R7 #0
(3372) 7F01  0111111100000001 ( 983)                 STR   R7 R4 #1
(3373) 133D  0001001100111101 ( 985)                 ADD   R1 R4 #-3
(3374) 7302  0111001100000010 ( 986)                 STR   R1 R4 #2
(3375) 6F02  0110111100000010 ( 988)                 LDR   R7 R4 #2
(3376) 6FC0  0110111111000000 ( 989)                 LDR   R7 R7 #0
(3377) 7F02  0111111100000010 ( 990)                 STR   R7 R4 #2
(3378) 6F02  0110111100000010 ( 992)                 LDR   R7 R4 #2
(3379) 6FC0  0110111111000000 ( 993)                 LDR   R7 R7 #0
(337A) 7F02  0111111100000010 ( 994)                 STR   R7 R4 #2
(337B) 6502  0110010100000010 ( 996)                 LDR   R2 R4 #2
(337C) 6301  0110001100000001 ( 997)                 LDR   R1 R4 #1
(337D) 94BF  1001010010111111 ( 998)                 NOT   R2 R2
(337E) 14A1  0001010010100001 ( 999)                 ADD   R2 R2 #1
(337F) 1242  0001001001000010 (1000)                 ADD   R1 R1 R2
(3380) 7301  0111001100000001 (1001)                 STR   R1 R4 #1
(3381) 6101  0110000100000001 (1003)                 LDR   R0 R4 #1
(3382) 0E01  0000111000000001 (1004)                 BRNZP Qstrcmp
(3383) 5020  0101000000100000 (1005)                 AND   R0 R0 #0
(3384) 6F3F  0110111100111111 (1006) Qstrcmp         LDR   R7 R4 #-1
(3385) 6900  0110100100000000 (1007)                 LDR   R4 R4 #0
(3386) C1C0  1100000111000000 (1008)                 RET   
(3387) 6300  0110001100000000 (1013) Fnstrcpy        LDR   R1 R4 #0
(3388) 1301  0001001100000001 (1014)                 ADD   R1 R4 R1
(3389) 7304  0111001100000100 (1015)                 STR   R1 R4 #4
(338A) 7F03  0111111100000011 (1016)                 STR   R7 R4 #3
(338B) 1924  0001100100100100 (1017)                 ADD   R4 R4 #4
(338C) 5020  0101000000100000 (1018)                 AND   R0 R0 #0
(338D) 133E  0001001100111110 (1020) LBL8            ADD   R1 R4 #-2
(338E) 7301  0111001100000001 (1021)                 STR   R1 R4 #1
(338F) 6301  0110001100000001 (1023)                 LDR   R1 R4 #1
(3390) 6440  0110010001000000 (1024)                 LDR   R2 R1 #0
(3391) 7501  0111010100000001 (1025)                 STR   R2 R4 #1
(3392) 14A1  0001010010100001 (1027)                 ADD   R2 R2 #1
(3393) 7440  0111010001000000 (1028)                 STR   R2 R1 #0
(3394) 133D  0001001100111101 (1029)                 ADD   R1 R4 #-3
(3395) 7302  0111001100000010 (1030)                 STR   R1 R4 #2
(3396) 6302  0110001100000010 (1032)                 LDR   R1 R4 #2
(3397) 6440  0110010001000000 (1033)                 LDR   R2 R1 #0
(3398) 7502  0111010100000010 (1034)                 STR   R2 R4 #2
(3399) 14A1  0001010010100001 (1036)                 ADD   R2 R2 #1
(339A) 7440  0111010001000000 (1037)                 STR   R2 R1 #0
(339B) 6F02  0110111100000010 (1038)                 LDR   R7 R4 #2
(339C) 6FC0  0110111111000000 (1039)                 LDR   R7 R7 #0
(339D) 7F02  0111111100000010 (1040)                 STR   R7 R4 #2
(339E) 6502  0110010100000010 (1042)                 LDR   R2 R4 #2
(339F) 6301  0110001100000001 (1043)                 LDR   R1 R4 #1
(33A0) 7440  0111010001000000 (1044)                 STR   R2 R1 #0
(33A1) 7501  0111010100000001 (1045)                 STR   R2 R4 #1
(33A2) 2201  0010001000000001 (1047)                 LD    R1 x33A4
(33A3) 0E01  0000111000000001 (1048)                 BRNZP LBL9
(33A4) 0000  0000000000000000 (1049)                 .FILL x0000
(33A5) 7302  0111001100000010 (1050) LBL9            STR   R1 R4 #2
(33A6) 6502  0110010100000010 (1051)                 LDR   R2 R4 #2
(33A7) 6301  0110001100000001 (1052)                 LDR   R1 R4 #1
(33A8) 94BF  1001010010111111 (1053)                 NOT   R2 R2
(33A9) 14A1  0001010010100001 (1054)                 ADD   R2 R2 #1
(33AA) 5020  0101000000100000 (1055)                 AND   R0 R0 #0
(33AB) 1242  0001001001000010 (1056)                 ADD   R1 R1 R2
(33AC) 0401  0000010000000001 (1057)                 BRZ   LBL10
(33AD) 1021  0001000000100001 (1058)                 ADD   R0 R0 #1
(33AE) 7101  0111000100000001 (1059) LBL10           STR   R0 R4 #1
(33AF) 6101  0110000100000001 (1061)                 LDR   R0 R4 #1
(33B0) 0401  0000010000000001 (1062)                 BRZ   LBL7
(33B1) 0FDB  0000111111011011 (1063)                 BRNZP LBL8
(33B2) 5020  0101000000100000 (1065) LBL7            AND   R0 R0 #0
(33B3) 6F3F  0110111100111111 (1066) Qstrcpy         LDR   R7 R4 #-1
(33B4) 6900  0110100100000000 (1067)                 LDR   R4 R4 #0
(33B5) C1C0  1100000111000000 (1068)                 RET   
(33B6) 3E31  0011111000110001 (1070) CSCANI          ST    R7 CIOR7
(33B7) 3231  0011001000110001 (1071)                 ST    R1 CIOR1
(33B8) 3431  0011010000110001 (1072)                 ST    R2 CIOR2
(33B9) 3631  0011011000110001 (1073)                 ST    R3 CIOR3
(33BA) 2232  0010001000110010 (1074)                 LD    R1 CSCANBEGINPTR
(33BB) 2E32  0010111000110010 (1075)                 LD    R7 CSCANENDPTR
(33BC) 9FFF  1001111111111111 (1076)                 NOT   R7 R7
(33BD) 1FE1  0001111111100001 (1077)                 ADD   R7 R7 #1
(33BE) 1FC1  0001111111000001 (1078)                 ADD   R7 R7 R1
(33BF) 0A02  0000101000000010 (1079)                 BRNP  CSCANIGETI
(33C0) 482E  0100100000101110 (1080)                 JSR   CSCAN
(33C1) 222B  0010001000101011 (1081)                 LD    R1 CSCANBEGINPTR
(33C2) 5020  0101000000100000 (1082) CSCANIGETI      AND   R0 R0 #0
(33C3) 2413  0010010000010011 (1083)                 LD    R2 CLRANGE
(33C4) 6E40  0110111001000000 (1084) CGETILOOP       LDR   R7 R1 #0
(33C5) 1FC2  0001111111000010 (1085)                 ADD   R7 R7 R2
(33C6) 080A  0000100000001010 (1086)                 BRN   CGETIFINISH
(33C7) 17F7  0001011111110111 (1087)                 ADD   R3 R7 #-9
(33C8) 0208  0000001000001000 (1088)                 BRP   CGETIFINISH
(33C9) 1FC0  0001111111000000 (1089)                 ADD   R7 R7 R0
(33CA) 1FC0  0001111111000000 (1090)                 ADD   R7 R7 R0
(33CB) 1000  0001000000000000 (1091)                 ADD   R0 R0 R0
(33CC) 1000  0001000000000000 (1092)                 ADD   R0 R0 R0
(33CD) 1000  0001000000000000 (1093)                 ADD   R0 R0 R0
(33CE) 1007  0001000000000111 (1094)                 ADD   R0 R0 R7
(33CF) 1261  0001001001100001 (1095)                 ADD   R1 R1 #1
(33D0) 0FF3  0000111111110011 (1096)                 BRNZP CGETILOOP
(33D1) 321B  0011001000011011 (1097) CGETIFINISH     ST    R1 CSCANBEGINPTR
(33D2) 2E15  0010111000010101 (1098)                 LD    R7 CIOR7
(33D3) 2215  0010001000010101 (1099)                 LD    R1 CIOR1
(33D4) 2415  0010010000010101 (1100)                 LD    R2 CIOR2
(33D5) 2615  0010011000010101 (1101)                 LD    R3 CIOR3
(33D6) C1C0  1100000111000000 (1102)                 RET   
(33D7) FFD0  1111111111010000 (1103) CLRANGE         .FILL xFFD0
(33D8) 3E0F  0011111000001111 (1104) CSCANC          ST    R7 CIOR7
(33D9) 320F  0011001000001111 (1105)                 ST    R1 CIOR1
(33DA) 2212  0010001000010010 (1106)                 LD    R1 CSCANBEGINPTR
(33DB) 2E12  0010111000010010 (1107)                 LD    R7 CSCANENDPTR
(33DC) 9FFF  1001111111111111 (1108)                 NOT   R7 R7
(33DD) 1FE1  0001111111100001 (1109)                 ADD   R7 R7 #1
(33DE) 1FC1  0001111111000001 (1110)                 ADD   R7 R7 R1
(33DF) 0A02  0000101000000010 (1111)                 BRNP  CSCANCGETC
(33E0) 480E  0100100000001110 (1112)                 JSR   CSCAN
(33E1) 220B  0010001000001011 (1113)                 LD    R1 CSCANBEGINPTR
(33E2) 6040  0110000001000000 (1114) CSCANCGETC      LDR   R0 R1 #0
(33E3) 1261  0001001001100001 (1115)                 ADD   R1 R1 #1
(33E4) 3208  0011001000001000 (1116)                 ST    R1 CSCANBEGINPTR
(33E5) 2E02  0010111000000010 (1117)                 LD    R7 CIOR7
(33E6) 2202  0010001000000010 (1118)                 LD    R1 CIOR1
(33E7) C1C0  1100000111000000 (1119)                 RET   
(33E8) 0000  0000000000000000 (1121) CIOR7           .FILL x0000
(33E9) 0000  0000000000000000 (1122) CIOR1           .FILL x0000
(33EA) 0000  0000000000000000 (1123) CIOR2           .FILL x0000
(33EB) 0000  0000000000000000 (1124) CIOR3           .FILL x0000
(33EC) 3424  0011010000100100 (1124) CSCANPTR        .FILL x3424
(33ED) 3424  0011010000100100 (1125) CSCANBEGINPTR   .FILL x3424
(33EE) 3424  0011010000100100 (1126) CSCANENDPTR     .FILL x3424
(33EF) 3E18  0011111000011000 (1127) CSCAN           ST    R7 CSCANR7
(33F0) 3218  0011001000011000 (1128)                 ST    R1 CSCANR1
(33F1) 23FA  0010001111111010 (1129)                 LD    R1 CSCANPTR
(33F2) A013  1010000000010011 (1130) CWAIT           LDI   R0 CCANSCAN
(33F3) 07FE  0000011111111110 (1131)                 BRZP  CWAIT
(33F4) A012  1010000000010010 (1132)                 LDI   R0 CSRCPTR
(33F5) 1E36  0001111000110110 (1133)                 ADD   R7 R0 #-10
(33F6) 0404  0000010000000100 (1134)                 BRZ   CSCANGET
(33F7) F021  1111000000100001 (1135)                 TRAP  x21
(33F8) 7040  0111000001000000 (1136)                 STR   R0 R1 #0
(33F9) 1261  0001001001100001 (1137)                 ADD   R1 R1 #1
(33FA) 0FF7  0000111111110111 (1138)                 BRNZP CWAIT
(33FB) 5FE0  0101111111100000 (1139) CSCANGET        AND   R7 R7 #0
(33FC) 7E40  0111111001000000 (1140)                 STR   R7 R1 #0
(33FD) 33F0  0011001111110000 (1141)                 ST    R1 CSCANENDPTR
(33FE) 23ED  0010001111101101 (1142)                 LD    R1 CSCANPTR
(33FF) 33ED  0011001111101101 (1143)                 ST    R1 CSCANBEGINPTR
(3400) 5020  0101000000100000 (1144)                 AND   R0 R0 #0
(3401) 102A  0001000000101010 (1145)                 ADD   R0 R0 #10
(3402) F021  1111000000100001 (1146)                 TRAP  x21
(3403) 2E04  0010111000000100 (1147)                 LD    R7 CSCANR7
(3404) 2204  0010001000000100 (1148)                 LD    R1 CSCANR1
(3405) C1C0  1100000111000000 (1149)                 RET   
(3406) FE00  1111111000000000 (1150) CCANSCAN        .FILL xFE00
(3407) FE02  1111111000000010 (1151) CSRCPTR         .FILL xFE02
(3408) 0000  0000000000000000 (1153) CSCANR7         .FILL x0000
(3409) 0000  0000000000000000 (1154) CSCANR1         .FILL x0000
(340A) 3217  0011001000010111 (1154) CSCANS          ST    R1 CSCANSR1
(340B) 3E15  0011111000010101 (1155)                 ST    R7 CSCANSR7
(340C) 23E0  0010001111100000 (1156)                 LD    R1 CSCANBEGINPTR
(340D) 2FE0  0010111111100000 (1157)                 LD    R7 CSCANENDPTR
(340E) 9FFF  1001111111111111 (1158)                 NOT   R7 R7
(340F) 1FE1  0001111111100001 (1159)                 ADD   R7 R7 #1
(3410) 1FC1  0001111111000001 (1160)                 ADD   R7 R7 R1
(3411) 0A04  0000101000000100 (1161)                 BRNP  CSCANSGETS
(3412) 3010  0011000000010000 (1162)                 ST    R0 CSCANSR0
(3413) 4FDB  0100111111011011 (1163)                 JSR   CSCAN
(3414) 200E  0010000000001110 (1164)                 LD    R0 CSCANSR0
(3415) 23D7  0010001111010111 (1165)                 LD    R1 CSCANBEGINPTR
(3416) 6E40  0110111001000000 (1166) CSCANSGETS      LDR   R7 R1 #0
(3417) 7E00  0111111000000000 (1167)                 STR   R7 R0 #0
(3418) 1021  0001000000100001 (1168)                 ADD   R0 R0 #1
(3419) 1261  0001001001100001 (1169)                 ADD   R1 R1 #1
(341A) 1FE0  0001111111100000 (1170)                 ADD   R7 R7 #0
(341B) 0BFA  0000101111111010 (1171)                 BRNP  CSCANSGETS
(341C) 127F  0001001001111111 (1172)                 ADD   R1 R1 #-1
(341D) 33CF  0011001111001111 (1173)                 ST    R1 CSCANBEGINPTR
(341E) 2203  0010001000000011 (1174)                 LD    R1 CSCANSR1
(341F) 2E01  0010111000000001 (1175)                 LD    R7 CSCANSR7
(3420) C1C0  1100000111000000 (1176)                 RET   
(3421) 0000  0000000000000000 (1178) CSCANSR7        .FILL x0000
(3422) 0000  0000000000000000 (1179) CSCANSR1        .FILL x0000
(3423) 0000  0000000000000000 (1180) CSCANSR0        .FILL x0000
(3424) 0000  0000000000000000 (1181) CSCANBUF        .FILL x0000
(3425) 0000  0000000000000000 (1181)                 .FILL x0000
(3426) 0000  0000000000000000 (1181)                 .FILL x0000
(3427) 0000  0000000000000000 (1181)                 .FILL x0000
(3428) 0000  0000000000000000 (1181)                 .FILL x0000
(3429) 0000  0000000000000000 (1181)                 .FILL x0000
(342A) 0000  0000000000000000 (1181)                 .FILL x0000
(342B) 0000  0000000000000000 (1181)                 .FILL x0000
(342C) 0000  0000000000000000 (1181)                 .FILL x0000
(342D) 0000  0000000000000000 (1181)                 .FILL x0000
(342E) 0000  0000000000000000 (1181)                 .FILL x0000
(342F) 0000  0000000000000000 (1181)                 .FILL x0000
(3430) 0000  0000000000000000 (1181)                 .FILL x0000
(3431) 0000  0000000000000000 (1181)                 .FILL x0000
(3432) 0000  0000000000000000 (1181)                 .FILL x0000
(3433) 0000  0000000000000000 (1181)                 .FILL x0000
(3434) 0000  0000000000000000 (1181)                 .FILL x0000
(3435) 0000  0000000000000000 (1181)                 .FILL x0000
(3436) 0000  0000000000000000 (1181)                 .FILL x0000
(3437) 0000  0000000000000000 (1181)                 .FILL x0000
(3438) 0000  0000000000000000 (1181)                 .FILL x0000
(3439) 0000  0000000000000000 (1181)                 .FILL x0000
(343A) 0000  0000000000000000 (1181)                 .FILL x0000
(343B) 0000  0000000000000000 (1181)                 .FILL x0000
(343C) 0000  0000000000000000 (1181)                 .FILL x0000
(343D) 0000  0000000000000000 (1181)                 .FILL x0000
(343E) 0000  0000000000000000 (1181)                 .FILL x0000
(343F) 0000  0000000000000000 (1181)                 .FILL x0000
(3440) 0000  0000000000000000 (1181)                 .FILL x0000
(3441) 0000  0000000000000000 (1181)                 .FILL x0000
(3442) 0000  0000000000000000 (1181)                 .FILL x0000
(3443) 0000  0000000000000000 (1181)                 .FILL x0000
(3444) 0000  0000000000000000 (1181)                 .FILL x0000
(3445) 0000  0000000000000000 (1181)                 .FILL x0000
(3446) 0000  0000000000000000 (1181)                 .FILL x0000
(3447) 0000  0000000000000000 (1181)                 .FILL x0000
(3448) 0000  0000000000000000 (1181)                 .FILL x0000
(3449) 0000  0000000000000000 (1181)                 .FILL x0000
(344A) 0000  0000000000000000 (1181)                 .FILL x0000
(344B) 0000  0000000000000000 (1181)                 .FILL x0000
(344C) 0000  0000000000000000 (1181)                 .FILL x0000
(344D) 0000  0000000000000000 (1181)                 .FILL x0000
(344E) 0000  0000000000000000 (1181)                 .FILL x0000
(344F) 0000  0000000000000000 (1181)                 .FILL x0000
(3450) 0000  0000000000000000 (1181)                 .FILL x0000
(3451) 0000  0000000000000000 (1181)                 .FILL x0000
(3452) 0000  0000000000000000 (1181)                 .FILL x0000
(3453) 0000  0000000000000000 (1181)                 .FILL x0000
(3454) 0000  0000000000000000 (1181)                 .FILL x0000
(3455) 0000  0000000000000000 (1181)                 .FILL x0000
(3456) 0000  0000000000000000 (1181)                 .FILL x0000
(3457) 0000  0000000000000000 (1181)                 .FILL x0000
(3458) 0000  0000000000000000 (1181)                 .FILL x0000
(3459) 0000  0000000000000000 (1181)                 .FILL x0000
(345A) 0000  0000000000000000 (1181)                 .FILL x0000
(345B) 0000  0000000000000000 (1181)                 .FILL x0000
(345C) 0000  0000000000000000 (1181)                 .FILL x0000
(345D) 0000  0000000000000000 (1181)                 .FILL x0000
(345E) 0000  0000000000000000 (1181)                 .FILL x0000
(345F) 0000  0000000000000000 (1181)                 .FILL x0000
(3460) 0000  0000000000000000 (1181)                 .FILL x0000
(3461) 0000  0000000000000000 (1181)                 .FILL x0000
(3462) 0000  0000000000000000 (1181)                 .FILL x0000
(3463) 0000  0000000000000000 (1181)                 .FILL x0000
(3464) 0000  0000000000000000 (1181)                 .FILL x0000
(3465) 0000  0000000000000000 (1181)                 .FILL x0000
(3466) 0000  0000000000000000 (1181)                 .FILL x0000
(3467) 0000  0000000000000000 (1181)                 .FILL x0000
(3468) 0000  0000000000000000 (1181)                 .FILL x0000
(3469) 0000  0000000000000000 (1181)                 .FILL x0000
(346A) 0000  0000000000000000 (1181)                 .FILL x0000
(346B) 0000  0000000000000000 (1181)                 .FILL x0000
(346C) 0000  0000000000000000 (1181)                 .FILL x0000
(346D) 0000  0000000000000000 (1181)                 .FILL x0000
(346E) 0000  0000000000000000 (1181)                 .FILL x0000
(346F) 0000  0000000000000000 (1181)                 .FILL x0000
(3470) 0000  0000000000000000 (1181)                 .FILL x0000
(3471) 0000  0000000000000000 (1181)                 .FILL x0000
(3472) 0000  0000000000000000 (1181)                 .FILL x0000
(3473) 0000  0000000000000000 (1181)                 .FILL x0000
(3474) 0000  0000000000000000 (1181)                 .FILL x0000
(3475) 0000  0000000000000000 (1181)                 .FILL x0000
(3476) 0000  0000000000000000 (1181)                 .FILL x0000
(3477) 0000  0000000000000000 (1181)                 .FILL x0000
(3478) 0000  0000000000000000 (1181)                 .FILL x0000
(3479) 0000  0000000000000000 (1181)                 .FILL x0000
(347A) 0000  0000000000000000 (1181)                 .FILL x0000
(347B) 0000  0000000000000000 (1181)                 .FILL x0000
(347C) 0000  0000000000000000 (1181)                 .FILL x0000
(347D) 0000  0000000000000000 (1181)                 .FILL x0000
(347E) 0000  0000000000000000 (1181)                 .FILL x0000
(347F) 0000  0000000000000000 (1181)                 .FILL x0000
(3480) 0000  0000000000000000 (1181)                 .FILL x0000
(3481) 0000  0000000000000000 (1181)                 .FILL x0000
(3482) 0000  0000000000000000 (1181)                 .FILL x0000
(3483) 0000  0000000000000000 (1181)                 .FILL x0000
(3484) 0000  0000000000000000 (1181)                 .FILL x0000
(3485) 0000  0000000000000000 (1181)                 .FILL x0000
(3486) 0000  0000000000000000 (1181)                 .FILL x0000
(3487) 0000  0000000000000000 (1181)                 .FILL x0000
(3488) 0000  0000000000000000 (1181)                 .FILL x0000
(3489) 0000  0000000000000000 (1181)                 .FILL x0000
(348A) 0000  0000000000000000 (1181)                 .FILL x0000
(348B) 0000  0000000000000000 (1181)                 .FILL x0000
(348C) 0000  0000000000000000 (1181)                 .FILL x0000
(348D) 0000  0000000000000000 (1181)                 .FILL x0000
(348E) 0000  0000000000000000 (1181)                 .FILL x0000
(348F) 0000  0000000000000000 (1181)                 .FILL x0000
(3490) 0000  0000000000000000 (1181)                 .FILL x0000
(3491) 0000  0000000000000000 (1181)                 .FILL x0000
(3492) 0000  0000000000000000 (1181)                 .FILL x0000
(3493) 0000  0000000000000000 (1181)                 .FILL x0000
(3494) 0000  0000000000000000 (1181)                 .FILL x0000
(3495) 0000  0000000000000000 (1181)                 .FILL x0000
(3496) 0000  0000000000000000 (1181)                 .FILL x0000
(3497) 0000  0000000000000000 (1181)                 .FILL x0000
(3498) 0000  0000000000000000 (1181)                 .FILL x0000
(3499) 0000  0000000000000000 (1181)                 .FILL x0000
(349A) 0000  0000000000000000 (1181)                 .FILL x0000
(349B) 0000  0000000000000000 (1181)                 .FILL x0000
(349C) 0000  0000000000000000 (1181)                 .FILL x0000
(349D) 0000  0000000000000000 (1181)                 .FILL x0000
(349E) 0000  0000000000000000 (1181)                 .FILL x0000
(349F) 0000  0000000000000000 (1181)                 .FILL x0000
(34A0) 0000  0000000000000000 (1181)                 .FILL x0000
(34A1) 0000  0000000000000000 (1181)                 .FILL x0000
(34A2) 0000  0000000000000000 (1181)                 .FILL x0000
(34A3) 0000  0000000000000000 (1181)                 .FILL x0000
(34A4) 0000  0000000000000000 (1181)                 .FILL x0000
(34A5) 0000  0000000000000000 (1181)                 .FILL x0000
(34A6) 0000  0000000000000000 (1181)                 .FILL x0000
(34A7) 0000  0000000000000000 (1181)                 .FILL x0000
(34A8) 0000  0000000000000000 (1181)                 .FILL x0000
(34A9) 0000  0000000000000000 (1181)                 .FILL x0000
(34AA) 0000  0000000000000000 (1181)                 .FILL x0000
(34AB) 0000  0000000000000000 (1181)                 .FILL x0000
(34AC) 0000  0000000000000000 (1181)                 .FILL x0000
(34AD) 0000  0000000000000000 (1181)                 .FILL x0000
(34AE) 0000  0000000000000000 (1181)                 .FILL x0000
(34AF) 0000  0000000000000000 (1181)                 .FILL x0000
(34B0) 0000  0000000000000000 (1181)                 .FILL x0000
(34B1) 0000  0000000000000000 (1181)                 .FILL x0000
(34B2) 0000  0000000000000000 (1181)                 .FILL x0000
(34B3) 0000  0000000000000000 (1181)                 .FILL x0000
(34B4) 0000  0000000000000000 (1181)                 .FILL x0000
(34B5) 0000  0000000000000000 (1181)                 .FILL x0000
(34B6) 0000  0000000000000000 (1181)                 .FILL x0000
(34B7) 0000  0000000000000000 (1181)                 .FILL x0000
(34B8) 0000  0000000000000000 (1181)                 .FILL x0000
(34B9) 0000  0000000000000000 (1181)                 .FILL x0000
(34BA) 0000  0000000000000000 (1181)                 .FILL x0000
(34BB) 0000  0000000000000000 (1181)                 .FILL x0000
(34BC) 0000  0000000000000000 (1181)                 .FILL x0000
(34BD) 0000  0000000000000000 (1181)                 .FILL x0000
(34BE) 0000  0000000000000000 (1181)                 .FILL x0000
(34BF) 0000  0000000000000000 (1181)                 .FILL x0000
(34C0) 0000  0000000000000000 (1181)                 .FILL x0000
(34C1) 0000  0000000000000000 (1181)                 .FILL x0000
(34C2) 0000  0000000000000000 (1181)                 .FILL x0000
(34C3) 0000  0000000000000000 (1181)                 .FILL x0000
(34C4) 0000  0000000000000000 (1181)                 .FILL x0000
(34C5) 0000  0000000000000000 (1181)                 .FILL x0000
(34C6) 0000  0000000000000000 (1181)                 .FILL x0000
(34C7) 0000  0000000000000000 (1181)                 .FILL x0000
(34C8) 0000  0000000000000000 (1181)                 .FILL x0000
(34C9) 0000  0000000000000000 (1181)                 .FILL x0000
(34CA) 0000  0000000000000000 (1181)                 .FILL x0000
(34CB) 0000  0000000000000000 (1181)                 .FILL x0000
(34CC) 0000  0000000000000000 (1181)                 .FILL x0000
(34CD) 0000  0000000000000000 (1181)                 .FILL x0000
(34CE) 0000  0000000000000000 (1181)                 .FILL x0000
(34CF) 0000  0000000000000000 (1181)                 .FILL x0000
(34D0) 0000  0000000000000000 (1181)                 .FILL x0000
(34D1) 0000  0000000000000000 (1181)                 .FILL x0000
(34D2) 0000  0000000000000000 (1181)                 .FILL x0000
(34D3) 0000  0000000000000000 (1181)                 .FILL x0000
(34D4) 0000  0000000000000000 (1181)                 .FILL x0000
(34D5) 0000  0000000000000000 (1181)                 .FILL x0000
(34D6) 0000  0000000000000000 (1181)                 .FILL x0000
(34D7) 0000  0000000000000000 (1181)                 .FILL x0000
(34D8) 0000  0000000000000000 (1181)                 .FILL x0000
(34D9) 0000  0000000000000000 (1181)                 .FILL x0000
(34DA) 0000  0000000000000000 (1181)                 .FILL x0000
(34DB) 0000  0000000000000000 (1181)                 .FILL x0000
(34DC) 0000  0000000000000000 (1181)                 .FILL x0000
(34DD) 0000  0000000000000000 (1181)                 .FILL x0000
(34DE) 0000  0000000000000000 (1181)                 .FILL x0000
(34DF) 0000  0000000000000000 (1181)                 .FILL x0000
(34E0) 0000  0000000000000000 (1181)                 .FILL x0000
(34E1) 0000  0000000000000000 (1181)                 .FILL x0000
(34E2) 0000  0000000000000000 (1181)                 .FILL x0000
(34E3) 0000  0000000000000000 (1181)                 .FILL x0000
(34E4) 0000  0000000000000000 (1181)                 .FILL x0000
(34E5) 0000  0000000000000000 (1181)                 .FILL x0000
(34E6) 0000  0000000000000000 (1181)                 .FILL x0000
(34E7) 0000  0000000000000000 (1181)                 .FILL x0000
(34E8) 0000  0000000000000000 (1181)                 .FILL x0000
(34E9) 0000  0000000000000000 (1181)                 .FILL x0000
(34EA) 0000  0000000000000000 (1181)                 .FILL x0000
(34EB) 0000  0000000000000000 (1181)                 .FILL x0000
(34EC) 0000  0000000000000000 (1181)                 .FILL x0000
(34ED) 0000  0000000000000000 (1181)                 .FILL x0000
(34EE) 0000  0000000000000000 (1181)                 .FILL x0000
(34EF) 0000  0000000000000000 (1181)                 .FILL x0000
(34F0) 0000  0000000000000000 (1181)                 .FILL x0000
(34F1) 0000  0000000000000000 (1181)                 .FILL x0000
(34F2) 0000  0000000000000000 (1181)                 .FILL x0000
(34F3) 0000  0000000000000000 (1181)                 .FILL x0000
(34F4) 0000  0000000000000000 (1181)                 .FILL x0000
(34F5) 0000  0000000000000000 (1181)                 .FILL x0000
(34F6) 0000  0000000000000000 (1181)                 .FILL x0000
(34F7) 0000  0000000000000000 (1181)                 .FILL x0000
(34F8) 0000  0000000000000000 (1181)                 .FILL x0000
(34F9) 0000  0000000000000000 (1181)                 .FILL x0000
(34FA) 0000  0000000000000000 (1181)                 .FILL x0000
(34FB) 0000  0000000000000000 (1181)                 .FILL x0000
(34FC) 0000  0000000000000000 (1181)                 .FILL x0000
(34FD) 0000  0000000000000000 (1181)                 .FILL x0000
(34FE) 0000  0000000000000000 (1181)                 .FILL x0000
(34FF) 0000  0000000000000000 (1181)                 .FILL x0000
(3500) 0000  0000000000000000 (1181)                 .FILL x0000
(3501) 0000  0000000000000000 (1181)                 .FILL x0000
(3502) 0000  0000000000000000 (1181)                 .FILL x0000
(3503) 0000  0000000000000000 (1181)                 .FILL x0000
(3504) 0000  0000000000000000 (1181)                 .FILL x0000
(3505) 0000  0000000000000000 (1181)                 .FILL x0000
(3506) 0000  0000000000000000 (1181)                 .FILL x0000
(3507) 0000  0000000000000000 (1181)                 .FILL x0000
(3508) 0000  0000000000000000 (1181)                 .FILL x0000
(3509) 0000  0000000000000000 (1181)                 .FILL x0000
(350A) 0000  0000000000000000 (1181)                 .FILL x0000
(350B) 0000  0000000000000000 (1181)                 .FILL x0000
(350C) 0000  0000000000000000 (1181)                 .FILL x0000
(350D) 0000  0000000000000000 (1181)                 .FILL x0000
(350E) 0000  0000000000000000 (1181)                 .FILL x0000
(350F) 0000  0000000000000000 (1181)                 .FILL x0000
(3510) 0000  0000000000000000 (1181)                 .FILL x0000
(3511) 0000  0000000000000000 (1181)                 .FILL x0000
(3512) 0000  0000000000000000 (1181)                 .FILL x0000
(3513) 0000  0000000000000000 (1181)                 .FILL x0000
(3514) 0000  0000000000000000 (1181)                 .FILL x0000
(3515) 0000  0000000000000000 (1181)                 .FILL x0000
(3516) 0000  0000000000000000 (1181)                 .FILL x0000
(3517) 0000  0000000000000000 (1181)                 .FILL x0000
(3518) 0000  0000000000000000 (1181)                 .FILL x0000
(3519) 0000  0000000000000000 (1181)                 .FILL x0000
(351A) 0000  0000000000000000 (1181)                 .FILL x0000
(351B) 0000  0000000000000000 (1181)                 .FILL x0000
(351C) 0000  0000000000000000 (1181)                 .FILL x0000
(351D) 0000  0000000000000000 (1181)                 .FILL x0000
(351E) 0000  0000000000000000 (1181)                 .FILL x0000
(351F) 0000  0000000000000000 (1181)                 .FILL x0000
(3520) 0000  0000000000000000 (1181)                 .FILL x0000
(3521) 0000  0000000000000000 (1181)                 .FILL x0000
(3522) 0000  0000000000000000 (1181)                 .FILL x0000
(3523) 0000  0000000000000000 (1181)                 .FILL x0000
(3524) 0000  0000000000000000 (1181)                 .FILL x0000
(3525) 0000  0000000000000000 (1181)                 .FILL x0000
(3526) 0000  0000000000000000 (1181)                 .FILL x0000
(3527) 0000  0000000000000000 (1181)                 .FILL x0000
(3528) 0000  0000000000000000 (1181)                 .FILL x0000
(3529) 0000  0000000000000000 (1181)                 .FILL x0000
(352A) 0000  0000000000000000 (1181)                 .FILL x0000
(352B) 0000  0000000000000000 (1181)                 .FILL x0000
(352C) 0000  0000000000000000 (1181)                 .FILL x0000
(352D) 0000  0000000000000000 (1181)                 .FILL x0000
(352E) 0000  0000000000000000 (1181)                 .FILL x0000
(352F) 0000  0000000000000000 (1181)                 .FILL x0000
(3530) 0000  0000000000000000 (1181)                 .FILL x0000
(3531) 0000  0000000000000000 (1181)                 .FILL x0000
(3532) 0000  0000000000000000 (1181)                 .FILL x0000
(3533) 0000  0000000000000000 (1181)                 .FILL x0000
(3534) 0000  0000000000000000 (1181)                 .FILL x0000
(3535) 0000  0000000000000000 (1181)                 .FILL x0000
(3536) 0000  0000000000000000 (1181)                 .FILL x0000
(3537) 0000  0000000000000000 (1181)                 .FILL x0000
(3538) 0000  0000000000000000 (1181)                 .FILL x0000
(3539) 0000  0000000000000000 (1181)                 .FILL x0000
(353A) 0000  0000000000000000 (1181)                 .FILL x0000
(353B) 0000  0000000000000000 (1181)                 .FILL x0000
(353C) 0000  0000000000000000 (1181)                 .FILL x0000
(353D) 0000  0000000000000000 (1181)                 .FILL x0000
(353E) 0000  0000000000000000 (1181)                 .FILL x0000
(353F) 0000  0000000000000000 (1181)                 .FILL x0000
(3540) 0000  0000000000000000 (1181)                 .FILL x0000
(3541) 0000  0000000000000000 (1181)                 .FILL x0000
(3542) 0000  0000000000000000 (1181)                 .FILL x0000
(3543) 0000  0000000000000000 (1181)                 .FILL x0000
(3544) 0000  0000000000000000 (1181)                 .FILL x0000
(3545) 0000  0000000000000000 (1181)                 .FILL x0000
(3546) 0000  0000000000000000 (1181)                 .FILL x0000
(3547) 0000  0000000000000000 (1181)                 .FILL x0000
(3548) 0000  0000000000000000 (1181)                 .FILL x0000
(3549) 0000  0000000000000000 (1181)                 .FILL x0000
(354A) 0000  0000000000000000 (1181)                 .FILL x0000
(354B) 0000  0000000000000000 (1181)                 .FILL x0000
(354C) 0000  0000000000000000 (1181)                 .FILL x0000
(354D) 0000  0000000000000000 (1181)                 .FILL x0000
(354E) 0000  0000000000000000 (1181)                 .FILL x0000
(354F) 0000  0000000000000000 (1181)                 .FILL x0000
(3550) 0000  0000000000000000 (1181)                 .FILL x0000
(3551) 0000  0000000000000000 (1181)                 .FILL x0000
(3552) 0000  0000000000000000 (1181)                 .FILL x0000
(3553) 0000  0000000000000000 (1181)                 .FILL x0000
(3554) 0000  0000000000000000 (1181)                 .FILL x0000
(3555) 0000  0000000000000000 (1181)                 .FILL x0000
(3556) 0000  0000000000000000 (1181)                 .FILL x0000
(3557) 0000  0000000000000000 (1181)                 .FILL x0000
(3558) 0000  0000000000000000 (1181)                 .FILL x0000
(3559) 0000  0000000000000000 (1181)                 .FILL x0000
(355A) 0000  0000000000000000 (1181)                 .FILL x0000
(355B) 0000  0000000000000000 (1181)                 .FILL x0000
(355C) 0000  0000000000000000 (1181)                 .FILL x0000
(355D) 0000  0000000000000000 (1181)                 .FILL x0000
(355E) 0000  0000000000000000 (1181)                 .FILL x0000
(355F) 0000  0000000000000000 (1181)                 .FILL x0000
(3560) 0000  0000000000000000 (1181)                 .FILL x0000
(3561) 0000  0000000000000000 (1181)                 .FILL x0000
(3562) 0000  0000000000000000 (1181)                 .FILL x0000
(3563) 0000  0000000000000000 (1181)                 .FILL x0000
(3564) 0000  0000000000000000 (1181)                 .FILL x0000
(3565) 0000  0000000000000000 (1181)                 .FILL x0000
(3566) 0000  0000000000000000 (1181)                 .FILL x0000
(3567) 0000  0000000000000000 (1181)                 .FILL x0000
(3568) 0000  0000000000000000 (1181)                 .FILL x0000
(3569) 0000  0000000000000000 (1181)                 .FILL x0000
(356A) 0000  0000000000000000 (1181)                 .FILL x0000
(356B) 0000  0000000000000000 (1181)                 .FILL x0000
(356C) 0000  0000000000000000 (1181)                 .FILL x0000
(356D) 0000  0000000000000000 (1181)                 .FILL x0000
(356E) 0000  0000000000000000 (1181)                 .FILL x0000
(356F) 0000  0000000000000000 (1181)                 .FILL x0000
(3570) 0000  0000000000000000 (1181)                 .FILL x0000
(3571) 0000  0000000000000000 (1181)                 .FILL x0000
(3572) 0000  0000000000000000 (1181)                 .FILL x0000
(3573) 0000  0000000000000000 (1181)                 .FILL x0000
(3574) 0000  0000000000000000 (1181)                 .FILL x0000
(3575) 0000  0000000000000000 (1181)                 .FILL x0000
(3576) 0000  0000000000000000 (1181)                 .FILL x0000
(3577) 0000  0000000000000000 (1181)                 .FILL x0000
(3578) 0000  0000000000000000 (1181)                 .FILL x0000
(3579) 0000  0000000000000000 (1181)                 .FILL x0000
(357A) 0000  0000000000000000 (1181)                 .FILL x0000
(357B) 0000  0000000000000000 (1181)                 .FILL x0000
(357C) 0000  0000000000000000 (1181)                 .FILL x0000
(357D) 0000  0000000000000000 (1181)                 .FILL x0000
(357E) 0000  0000000000000000 (1181)                 .FILL x0000
(357F) 0000  0000000000000000 (1181)                 .FILL x0000
(3580) 0000  0000000000000000 (1181)                 .FILL x0000
(3581) 0000  0000000000000000 (1181)                 .FILL x0000
(3582) 0000  0000000000000000 (1181)                 .FILL x0000
(3583) 0000  0000000000000000 (1181)                 .FILL x0000
(3584) 0000  0000000000000000 (1181)                 .FILL x0000
(3585) 0000  0000000000000000 (1181)                 .FILL x0000
(3586) 0000  0000000000000000 (1181)                 .FILL x0000
(3587) 0000  0000000000000000 (1181)                 .FILL x0000
(3588) 0000  0000000000000000 (1181)                 .FILL x0000
(3589) 0000  0000000000000000 (1181)                 .FILL x0000
(358A) 0000  0000000000000000 (1181)                 .FILL x0000
(358B) 0000  0000000000000000 (1181)                 .FILL x0000
(358C) 0000  0000000000000000 (1181)                 .FILL x0000
(358D) 0000  0000000000000000 (1181)                 .FILL x0000
(358E) 0000  0000000000000000 (1181)                 .FILL x0000
(358F) 0000  0000000000000000 (1181)                 .FILL x0000
(3590) 0000  0000000000000000 (1181)                 .FILL x0000
(3591) 0000  0000000000000000 (1181)                 .FILL x0000
(3592) 0000  0000000000000000 (1181)                 .FILL x0000
(3593) 0000  0000000000000000 (1181)                 .FILL x0000
(3594) 0000  0000000000000000 (1181)                 .FILL x0000
(3595) 0000  0000000000000000 (1181)                 .FILL x0000
(3596) 0000  0000000000000000 (1181)                 .FILL x0000
(3597) 0000  0000000000000000 (1181)                 .FILL x0000
(3598) 0000  0000000000000000 (1181)                 .FILL x0000
(3599) 0000  0000000000000000 (1181)                 .FILL x0000
(359A) 0000  0000000000000000 (1181)                 .FILL x0000
(359B) 0000  0000000000000000 (1181)                 .FILL x0000
(359C) 0000  0000000000000000 (1181)                 .FILL x0000
(359D) 0000  0000000000000000 (1181)                 .FILL x0000
(359E) 0000  0000000000000000 (1181)                 .FILL x0000
(359F) 0000  0000000000000000 (1181)                 .FILL x0000
(35A0) 0000  0000000000000000 (1181)                 .FILL x0000
(35A1) 0000  0000000000000000 (1181)                 .FILL x0000
(35A2) 0000  0000000000000000 (1181)                 .FILL x0000
(35A3) 0000  0000000000000000 (1181)                 .FILL x0000
(35A4) 0000  0000000000000000 (1181)                 .FILL x0000
(35A5) 0000  0000000000000000 (1181)                 .FILL x0000
(35A6) 0000  0000000000000000 (1181)                 .FILL x0000
(35A7) 0000  0000000000000000 (1181)                 .FILL x0000
(35A8) 0000  0000000000000000 (1181)                 .FILL x0000
(35A9) 0000  0000000000000000 (1181)                 .FILL x0000
(35AA) 0000  0000000000000000 (1181)                 .FILL x0000
(35AB) 0000  0000000000000000 (1181)                 .FILL x0000
(35AC) 0000  0000000000000000 (1181)                 .FILL x0000
(35AD) 0000  0000000000000000 (1181)                 .FILL x0000
(35AE) 0000  0000000000000000 (1181)                 .FILL x0000
(35AF) 0000  0000000000000000 (1181)                 .FILL x0000
(35B0) 0000  0000000000000000 (1181)                 .FILL x0000
(35B1) 0000  0000000000000000 (1181)                 .FILL x0000
(35B2) 0000  0000000000000000 (1181)                 .FILL x0000
(35B3) 0000  0000000000000000 (1181)                 .FILL x0000
(35B4) 0000  0000000000000000 (1181)                 .FILL x0000
(35B5) 0000  0000000000000000 (1181)                 .FILL x0000
(35B6) 0000  0000000000000000 (1181)                 .FILL x0000
(35B7) 0000  0000000000000000 (1181)                 .FILL x0000
(35B8) 0000  0000000000000000 (1181)                 .FILL x0000
(35B9) 0000  0000000000000000 (1181)                 .FILL x0000
(35BA) 0000  0000000000000000 (1181)                 .FILL x0000
(35BB) 0000  0000000000000000 (1181)                 .FILL x0000
(35BC) 0000  0000000000000000 (1181)                 .FILL x0000
(35BD) 0000  0000000000000000 (1181)                 .FILL x0000
(35BE) 0000  0000000000000000 (1181)                 .FILL x0000
(35BF) 0000  0000000000000000 (1181)                 .FILL x0000
(35C0) 0000  0000000000000000 (1181)                 .FILL x0000
(35C1) 0000  0000000000000000 (1181)                 .FILL x0000
(35C2) 0000  0000000000000000 (1181)                 .FILL x0000
(35C3) 0000  0000000000000000 (1181)                 .FILL x0000
(35C4) 0000  0000000000000000 (1181)                 .FILL x0000
(35C5) 0000  0000000000000000 (1181)                 .FILL x0000
(35C6) 0000  0000000000000000 (1181)                 .FILL x0000
(35C7) 0000  0000000000000000 (1181)                 .FILL x0000
(35C8) 0000  0000000000000000 (1181)                 .FILL x0000
(35C9) 0000  0000000000000000 (1181)                 .FILL x0000
(35CA) 0000  0000000000000000 (1181)                 .FILL x0000
(35CB) 0000  0000000000000000 (1181)                 .FILL x0000
(35CC) 0000  0000000000000000 (1181)                 .FILL x0000
(35CD) 0000  0000000000000000 (1181)                 .FILL x0000
(35CE) 0000  0000000000000000 (1181)                 .FILL x0000
(35CF) 0000  0000000000000000 (1181)                 .FILL x0000
(35D0) 0000  0000000000000000 (1181)                 .FILL x0000
(35D1) 0000  0000000000000000 (1181)                 .FILL x0000
(35D2) 0000  0000000000000000 (1181)                 .FILL x0000
(35D3) 0000  0000000000000000 (1181)                 .FILL x0000
(35D4) 0000  0000000000000000 (1181)                 .FILL x0000
(35D5) 0000  0000000000000000 (1181)                 .FILL x0000
(35D6) 0000  0000000000000000 (1181)                 .FILL x0000
(35D7) 0000  0000000000000000 (1181)                 .FILL x0000
(35D8) 0000  0000000000000000 (1181)                 .FILL x0000
(35D9) 0000  0000000000000000 (1181)                 .FILL x0000
(35DA) 0000  0000000000000000 (1181)                 .FILL x0000
(35DB) 0000  0000000000000000 (1181)                 .FILL x0000
(35DC) 0000  0000000000000000 (1181)                 .FILL x0000
(35DD) 0000  0000000000000000 (1181)                 .FILL x0000
(35DE) 0000  0000000000000000 (1181)                 .FILL x0000
(35DF) 0000  0000000000000000 (1181)                 .FILL x0000
(35E0) 0000  0000000000000000 (1181)                 .FILL x0000
(35E1) 0000  0000000000000000 (1181)                 .FILL x0000
(35E2) 0000  0000000000000000 (1181)                 .FILL x0000
(35E3) 0000  0000000000000000 (1181)                 .FILL x0000
(35E4) 0000  0000000000000000 (1181)                 .FILL x0000
(35E5) 0000  0000000000000000 (1181)                 .FILL x0000
(35E6) 0000  0000000000000000 (1181)                 .FILL x0000
(35E7) 0000  0000000000000000 (1181)                 .FILL x0000
(35E8) 0000  0000000000000000 (1181)                 .FILL x0000
(35E9) 0000  0000000000000000 (1181)                 .FILL x0000
(35EA) 0000  0000000000000000 (1181)                 .FILL x0000
(35EB) 0000  0000000000000000 (1181)                 .FILL x0000
(35EC) 0000  0000000000000000 (1181)                 .FILL x0000
(35ED) 0000  0000000000000000 (1181)                 .FILL x0000
(35EE) 0000  0000000000000000 (1181)                 .FILL x0000
(35EF) 0000  0000000000000000 (1181)                 .FILL x0000
(35F0) 0000  0000000000000000 (1181)                 .FILL x0000
(35F1) 0000  0000000000000000 (1181)                 .FILL x0000
(35F2) 0000  0000000000000000 (1181)                 .FILL x0000
(35F3) 0000  0000000000000000 (1181)                 .FILL x0000
(35F4) 0000  0000000000000000 (1181)                 .FILL x0000
(35F5) 0000  0000000000000000 (1181)                 .FILL x0000
(35F6) 0000  0000000000000000 (1181)                 .FILL x0000
(35F7) 0000  0000000000000000 (1181)                 .FILL x0000
(35F8) 0000  0000000000000000 (1181)                 .FILL x0000
(35F9) 0000  0000000000000000 (1181)                 .FILL x0000
(35FA) 0000  0000000000000000 (1181)                 .FILL x0000
(35FB) 0000  0000000000000000 (1181)                 .FILL x0000
(35FC) 0000  0000000000000000 (1181)                 .FILL x0000
(35FD) 0000  0000000000000000 (1181)                 .FILL x0000
(35FE) 0000  0000000000000000 (1181)                 .FILL x0000
(35FF) 0000  0000000000000000 (1181)                 .FILL x0000
(3600) 0000  0000000000000000 (1181)                 .FILL x0000
(3601) 0000  0000000000000000 (1181)                 .FILL x0000
(3602) 0000  0000000000000000 (1181)                 .FILL x0000
(3603) 0000  0000000000000000 (1181)                 .FILL x0000
(3604) 0000  0000000000000000 (1181)                 .FILL x0000
(3605) 0000  0000000000000000 (1181)                 .FILL x0000
(3606) 0000  0000000000000000 (1181)                 .FILL x0000
(3607) 0000  0000000000000000 (1181)                 .FILL x0000
(3608) 0000  0000000000000000 (1181)                 .FILL x0000
(3609) 0000  0000000000000000 (1181)                 .FILL x0000
(360A) 0000  0000000000000000 (1181)                 .FILL x0000
(360B) 0000  0000000000000000 (1181)                 .FILL x0000
(360C) 0000  0000000000000000 (1181)                 .FILL x0000
(360D) 0000  0000000000000000 (1181)                 .FILL x0000
(360E) 0000  0000000000000000 (1181)                 .FILL x0000
(360F) 0000  0000000000000000 (1181)                 .FILL x0000
(3610) 0000  0000000000000000 (1181)                 .FILL x0000
(3611) 0000  0000000000000000 (1181)                 .FILL x0000
(3612) 0000  0000000000000000 (1181)                 .FILL x0000
(3613) 0000  0000000000000000 (1181)                 .FILL x0000
(3614) 0000  0000000000000000 (1181)                 .FILL x0000
(3615) 0000  0000000000000000 (1181)                 .FILL x0000
(3616) 0000  0000000000000000 (1181)                 .FILL x0000
(3617) 0000  0000000000000000 (1181)                 .FILL x0000
(3618) 0000  0000000000000000 (1181)                 .FILL x0000
(3619) 0000  0000000000000000 (1181)                 .FILL x0000
(361A) 0000  0000000000000000 (1181)                 .FILL x0000
(361B) 0000  0000000000000000 (1181)                 .FILL x0000
(361C) 0000  0000000000000000 (1181)                 .FILL x0000
(361D) 0000  0000000000000000 (1181)                 .FILL x0000
(361E) 0000  0000000000000000 (1181)                 .FILL x0000
(361F) 0000  0000000000000000 (1181)                 .FILL x0000
(3620) 0000  0000000000000000 (1181)                 .FILL x0000
(3621) 0000  0000000000000000 (1181)                 .FILL x0000
(3622) 0000  0000000000000000 (1181)                 .FILL x0000
(3623) 0000  0000000000000000 (1181)                 .FILL x0000
(3624) 0000  0000000000000000 (1181)                 .FILL x0000
(3625) 0000  0000000000000000 (1181)                 .FILL x0000
(3626) 0000  0000000000000000 (1181)                 .FILL x0000
(3627) 0000  0000000000000000 (1181)                 .FILL x0000
(3628) 0000  0000000000000000 (1181)                 .FILL x0000
(3629) 0000  0000000000000000 (1181)                 .FILL x0000
(362A) 0000  0000000000000000 (1181)                 .FILL x0000
(362B) 0000  0000000000000000 (1181)                 .FILL x0000
(362C) 0000  0000000000000000 (1181)                 .FILL x0000
(362D) 0000  0000000000000000 (1181)                 .FILL x0000
(362E) 0000  0000000000000000 (1181)                 .FILL x0000
(362F) 0000  0000000000000000 (1181)                 .FILL x0000
(3630) 0000  0000000000000000 (1181)                 .FILL x0000
(3631) 0000  0000000000000000 (1181)                 .FILL x0000
(3632) 0000  0000000000000000 (1181)                 .FILL x0000
(3633) 0000  0000000000000000 (1181)                 .FILL x0000
(3634) 0000  0000000000000000 (1181)                 .FILL x0000
(3635) 0000  0000000000000000 (1181)                 .FILL x0000
(3636) 0000  0000000000000000 (1181)                 .FILL x0000
(3637) 0000  0000000000000000 (1181)                 .FILL x0000
(3638) 0000  0000000000000000 (1181)                 .FILL x0000
(3639) 0000  0000000000000000 (1181)                 .FILL x0000
(363A) 0000  0000000000000000 (1181)                 .FILL x0000
(363B) 0000  0000000000000000 (1181)                 .FILL x0000
(363C) 0000  0000000000000000 (1181)                 .FILL x0000
(363D) 0000  0000000000000000 (1181)                 .FILL x0000
(363E) 0000  0000000000000000 (1181)                 .FILL x0000
(363F) 0000  0000000000000000 (1181)                 .FILL x0000
(3640) 0000  0000000000000000 (1181)                 .FILL x0000
(3641) 0000  0000000000000000 (1181)                 .FILL x0000
(3642) 0000  0000000000000000 (1181)                 .FILL x0000
(3643) 0000  0000000000000000 (1181)                 .FILL x0000
(3644) 0000  0000000000000000 (1181)                 .FILL x0000
(3645) 0000  0000000000000000 (1181)                 .FILL x0000
(3646) 0000  0000000000000000 (1181)                 .FILL x0000
(3647) 0000  0000000000000000 (1181)                 .FILL x0000
(3648) 0000  0000000000000000 (1181)                 .FILL x0000
(3649) 0000  0000000000000000 (1181)                 .FILL x0000
(364A) 0000  0000000000000000 (1181)                 .FILL x0000
(364B) 0000  0000000000000000 (1181)                 .FILL x0000
(364C) 0000  0000000000000000 (1181)                 .FILL x0000
(364D) 0000  0000000000000000 (1181)                 .FILL x0000
(364E) 0000  0000000000000000 (1181)                 .FILL x0000
(364F) 0000  0000000000000000 (1181)                 .FILL x0000
(3650) 0000  0000000000000000 (1181)                 .FILL x0000
(3651) 0000  0000000000000000 (1181)                 .FILL x0000
(3652) 0000  0000000000000000 (1181)                 .FILL x0000
(3653) 0000  0000000000000000 (1181)                 .FILL x0000
(3654) 0000  0000000000000000 (1181)                 .FILL x0000
(3655) 0000  0000000000000000 (1181)                 .FILL x0000
(3656) 0000  0000000000000000 (1181)                 .FILL x0000
(3657) 0000  0000000000000000 (1181)                 .FILL x0000
(3658) 0000  0000000000000000 (1181)                 .FILL x0000
(3659) 0000  0000000000000000 (1181)                 .FILL x0000
(365A) 0000  0000000000000000 (1181)                 .FILL x0000
(365B) 0000  0000000000000000 (1181)                 .FILL x0000
(365C) 0000  0000000000000000 (1181)                 .FILL x0000
(365D) 0000  0000000000000000 (1181)                 .FILL x0000
(365E) 0000  0000000000000000 (1181)                 .FILL x0000
(365F) 0000  0000000000000000 (1181)                 .FILL x0000
(3660) 0000  0000000000000000 (1181)                 .FILL x0000
(3661) 0000  0000000000000000 (1181)                 .FILL x0000
(3662) 0000  0000000000000000 (1181)                 .FILL x0000
(3663) 0000  0000000000000000 (1181)                 .FILL x0000
(3664) 0000  0000000000000000 (1181)                 .FILL x0000
(3665) 0000  0000000000000000 (1181)                 .FILL x0000
(3666) 0000  0000000000000000 (1181)                 .FILL x0000
(3667) 0000  0000000000000000 (1181)                 .FILL x0000
(3668) 0000  0000000000000000 (1181)                 .FILL x0000
(3669) 0000  0000000000000000 (1181)                 .FILL x0000
(366A) 0000  0000000000000000 (1181)                 .FILL x0000
(366B) 0000  0000000000000000 (1181)                 .FILL x0000
(366C) 0000  0000000000000000 (1181)                 .FILL x0000
(366D) 0000  0000000000000000 (1181)                 .FILL x0000
(366E) 0000  0000000000000000 (1181)                 .FILL x0000
(366F) 0000  0000000000000000 (1181)                 .FILL x0000
(3670) 0000  0000000000000000 (1181)                 .FILL x0000
(3671) 0000  0000000000000000 (1181)                 .FILL x0000
(3672) 0000  0000000000000000 (1181)                 .FILL x0000
(3673) 0000  0000000000000000 (1181)                 .FILL x0000
(3674) 0000  0000000000000000 (1181)                 .FILL x0000
(3675) 0000  0000000000000000 (1181)                 .FILL x0000
(3676) 0000  0000000000000000 (1181)                 .FILL x0000
(3677) 0000  0000000000000000 (1181)                 .FILL x0000
(3678) 0000  0000000000000000 (1181)                 .FILL x0000
(3679) 0000  0000000000000000 (1181)                 .FILL x0000
(367A) 0000  0000000000000000 (1181)                 .FILL x0000
(367B) 0000  0000000000000000 (1181)                 .FILL x0000
(367C) 0000  0000000000000000 (1181)                 .FILL x0000
(367D) 0000  0000000000000000 (1181)                 .FILL x0000
(367E) 0000  0000000000000000 (1181)                 .FILL x0000
(367F) 0000  0000000000000000 (1181)                 .FILL x0000
(3680) 0000  0000000000000000 (1181)                 .FILL x0000
(3681) 0000  0000000000000000 (1181)                 .FILL x0000
(3682) 0000  0000000000000000 (1181)                 .FILL x0000
(3683) 0000  0000000000000000 (1181)                 .FILL x0000
(3684) 0000  0000000000000000 (1181)                 .FILL x0000
(3685) 0000  0000000000000000 (1181)                 .FILL x0000
(3686) 0000  0000000000000000 (1181)                 .FILL x0000
(3687) 0000  0000000000000000 (1181)                 .FILL x0000
(3688) 0000  0000000000000000 (1181)                 .FILL x0000
(3689) 0000  0000000000000000 (1181)                 .FILL x0000
(368A) 0000  0000000000000000 (1181)                 .FILL x0000
(368B) 0000  0000000000000000 (1181)                 .FILL x0000
(368C) 0000  0000000000000000 (1181)                 .FILL x0000
(368D) 0000  0000000000000000 (1181)                 .FILL x0000
(368E) 0000  0000000000000000 (1181)                 .FILL x0000
(368F) 0000  0000000000000000 (1181)                 .FILL x0000
(3690) 0000  0000000000000000 (1181)                 .FILL x0000
(3691) 0000  0000000000000000 (1181)                 .FILL x0000
(3692) 0000  0000000000000000 (1181)                 .FILL x0000
(3693) 0000  0000000000000000 (1181)                 .FILL x0000
(3694) 0000  0000000000000000 (1181)                 .FILL x0000
(3695) 0000  0000000000000000 (1181)                 .FILL x0000
(3696) 0000  0000000000000000 (1181)                 .FILL x0000
(3697) 0000  0000000000000000 (1181)                 .FILL x0000
(3698) 0000  0000000000000000 (1181)                 .FILL x0000
(3699) 0000  0000000000000000 (1181)                 .FILL x0000
(369A) 0000  0000000000000000 (1181)                 .FILL x0000
(369B) 0000  0000000000000000 (1181)                 .FILL x0000
(369C) 0000  0000000000000000 (1181)                 .FILL x0000
(369D) 0000  0000000000000000 (1181)                 .FILL x0000
(369E) 0000  0000000000000000 (1181)                 .FILL x0000
(369F) 0000  0000000000000000 (1181)                 .FILL x0000
(36A0) 0000  0000000000000000 (1181)                 .FILL x0000
(36A1) 0000  0000000000000000 (1181)                 .FILL x0000
(36A2) 0000  0000000000000000 (1181)                 .FILL x0000
(36A3) 0000  0000000000000000 (1181)                 .FILL x0000
(36A4) 0000  0000000000000000 (1181)                 .FILL x0000
(36A5) 0000  0000000000000000 (1181)                 .FILL x0000
(36A6) 0000  0000000000000000 (1181)                 .FILL x0000
(36A7) 0000  0000000000000000 (1181)                 .FILL x0000
(36A8) 0000  0000000000000000 (1181)                 .FILL x0000
(36A9) 0000  0000000000000000 (1181)                 .FILL x0000
(36AA) 0000  0000000000000000 (1181)                 .FILL x0000
(36AB) 0000  0000000000000000 (1181)                 .FILL x0000
(36AC) 0000  0000000000000000 (1181)                 .FILL x0000
(36AD) 0000  0000000000000000 (1181)                 .FILL x0000
(36AE) 0000  0000000000000000 (1181)                 .FILL x0000
(36AF) 0000  0000000000000000 (1181)                 .FILL x0000
(36B0) 0000  0000000000000000 (1181)                 .FILL x0000
(36B1) 0000  0000000000000000 (1181)                 .FILL x0000
(36B2) 0000  0000000000000000 (1181)                 .FILL x0000
(36B3) 0000  0000000000000000 (1181)                 .FILL x0000
(36B4) 0000  0000000000000000 (1181)                 .FILL x0000
(36B5) 0000  0000000000000000 (1181)                 .FILL x0000
(36B6) 0000  0000000000000000 (1181)                 .FILL x0000
(36B7) 0000  0000000000000000 (1181)                 .FILL x0000
(36B8) 0000  0000000000000000 (1181)                 .FILL x0000
(36B9) 0000  0000000000000000 (1181)                 .FILL x0000
(36BA) 0000  0000000000000000 (1181)                 .FILL x0000
(36BB) 0000  0000000000000000 (1181)                 .FILL x0000
(36BC) 0000  0000000000000000 (1181)                 .FILL x0000
(36BD) 0000  0000000000000000 (1181)                 .FILL x0000
(36BE) 0000  0000000000000000 (1181)                 .FILL x0000
(36BF) 0000  0000000000000000 (1181)                 .FILL x0000
(36C0) 0000  0000000000000000 (1181)                 .FILL x0000
(36C1) 0000  0000000000000000 (1181)                 .FILL x0000
(36C2) 0000  0000000000000000 (1181)                 .FILL x0000
(36C3) 0000  0000000000000000 (1181)                 .FILL x0000
(36C4) 0000  0000000000000000 (1181)                 .FILL x0000
(36C5) 0000  0000000000000000 (1181)                 .FILL x0000
(36C6) 0000  0000000000000000 (1181)                 .FILL x0000
(36C7) 0000  0000000000000000 (1181)                 .FILL x0000
(36C8) 0000  0000000000000000 (1181)                 .FILL x0000
(36C9) 0000  0000000000000000 (1181)                 .FILL x0000
(36CA) 0000  0000000000000000 (1181)                 .FILL x0000
(36CB) 0000  0000000000000000 (1181)                 .FILL x0000
(36CC) 0000  0000000000000000 (1181)                 .FILL x0000
(36CD) 0000  0000000000000000 (1181)                 .FILL x0000
(36CE) 0000  0000000000000000 (1181)                 .FILL x0000
(36CF) 0000  0000000000000000 (1181)                 .FILL x0000
(36D0) 0000  0000000000000000 (1181)                 .FILL x0000
(36D1) 0000  0000000000000000 (1181)                 .FILL x0000
(36D2) 0000  0000000000000000 (1181)                 .FILL x0000
(36D3) 0000  0000000000000000 (1181)                 .FILL x0000
(36D4) 0000  0000000000000000 (1181)                 .FILL x0000
(36D5) 0000  0000000000000000 (1181)                 .FILL x0000
(36D6) 0000  0000000000000000 (1181)                 .FILL x0000
(36D7) 0000  0000000000000000 (1181)                 .FILL x0000
(36D8) 0000  0000000000000000 (1181)                 .FILL x0000
(36D9) 0000  0000000000000000 (1181)                 .FILL x0000
(36DA) 0000  0000000000000000 (1181)                 .FILL x0000
(36DB) 0000  0000000000000000 (1181)                 .FILL x0000
(36DC) 0000  0000000000000000 (1181)                 .FILL x0000
(36DD) 0000  0000000000000000 (1181)                 .FILL x0000
(36DE) 0000  0000000000000000 (1181)                 .FILL x0000
(36DF) 0000  0000000000000000 (1181)                 .FILL x0000
(36E0) 0000  0000000000000000 (1181)                 .FILL x0000
(36E1) 0000  0000000000000000 (1181)                 .FILL x0000
(36E2) 0000  0000000000000000 (1181)                 .FILL x0000
(36E3) 0000  0000000000000000 (1181)                 .FILL x0000
(36E4) 0000  0000000000000000 (1181)                 .FILL x0000
(36E5) 0000  0000000000000000 (1181)                 .FILL x0000
(36E6) 0000  0000000000000000 (1181)                 .FILL x0000
(36E7) 0000  0000000000000000 (1181)                 .FILL x0000
(36E8) 0000  0000000000000000 (1181)                 .FILL x0000
(36E9) 0000  0000000000000000 (1181)                 .FILL x0000
(36EA) 0000  0000000000000000 (1181)                 .FILL x0000
(36EB) 0000  0000000000000000 (1181)                 .FILL x0000
(36EC) 0000  0000000000000000 (1181)                 .FILL x0000
(36ED) 0000  0000000000000000 (1181)                 .FILL x0000
(36EE) 0000  0000000000000000 (1181)                 .FILL x0000
(36EF) 0000  0000000000000000 (1181)                 .FILL x0000
(36F0) 0000  0000000000000000 (1181)                 .FILL x0000
(36F1) 0000  0000000000000000 (1181)                 .FILL x0000
(36F2) 0000  0000000000000000 (1181)                 .FILL x0000
(36F3) 0000  0000000000000000 (1181)                 .FILL x0000
(36F4) 0000  0000000000000000 (1181)                 .FILL x0000
(36F5) 0000  0000000000000000 (1181)                 .FILL x0000
(36F6) 0000  0000000000000000 (1181)                 .FILL x0000
(36F7) 0000  0000000000000000 (1181)                 .FILL x0000
(36F8) 0000  0000000000000000 (1181)                 .FILL x0000
(36F9) 0000  0000000000000000 (1181)                 .FILL x0000
(36FA) 0000  0000000000000000 (1181)                 .FILL x0000
(36FB) 0000  0000000000000000 (1181)                 .FILL x0000
(36FC) 0000  0000000000000000 (1181)                 .FILL x0000
(36FD) 0000  0000000000000000 (1181)                 .FILL x0000
(36FE) 0000  0000000000000000 (1181)                 .FILL x0000
(36FF) 0000  0000000000000000 (1181)                 .FILL x0000
(3700) 0000  0000000000000000 (1181)                 .FILL x0000
(3701) 0000  0000000000000000 (1181)                 .FILL x0000
(3702) 0000  0000000000000000 (1181)                 .FILL x0000
(3703) 0000  0000000000000000 (1181)                 .FILL x0000
(3704) 0000  0000000000000000 (1181)                 .FILL x0000
(3705) 0000  0000000000000000 (1181)                 .FILL x0000
(3706) 0000  0000000000000000 (1181)                 .FILL x0000
(3707) 0000  0000000000000000 (1181)                 .FILL x0000
(3708) 0000  0000000000000000 (1181)                 .FILL x0000
(3709) 0000  0000000000000000 (1181)                 .FILL x0000
(370A) 0000  0000000000000000 (1181)                 .FILL x0000
(370B) 0000  0000000000000000 (1181)                 .FILL x0000
(370C) 0000  0000000000000000 (1181)                 .FILL x0000
(370D) 0000  0000000000000000 (1181)                 .FILL x0000
(370E) 0000  0000000000000000 (1181)                 .FILL x0000
(370F) 0000  0000000000000000 (1181)                 .FILL x0000
(3710) 0000  0000000000000000 (1181)                 .FILL x0000
(3711) 0000  0000000000000000 (1181)                 .FILL x0000
(3712) 0000  0000000000000000 (1181)                 .FILL x0000
(3713) 0000  0000000000000000 (1181)                 .FILL x0000
(3714) 0000  0000000000000000 (1181)                 .FILL x0000
(3715) 0000  0000000000000000 (1181)                 .FILL x0000
(3716) 0000  0000000000000000 (1181)                 .FILL x0000
(3717) 0000  0000000000000000 (1181)                 .FILL x0000
(3718) 0000  0000000000000000 (1181)                 .FILL x0000
(3719) 0000  0000000000000000 (1181)                 .FILL x0000
(371A) 0000  0000000000000000 (1181)                 .FILL x0000
(371B) 0000  0000000000000000 (1181)                 .FILL x0000
(371C) 0000  0000000000000000 (1181)                 .FILL x0000
(371D) 0000  0000000000000000 (1181)                 .FILL x0000
(371E) 0000  0000000000000000 (1181)                 .FILL x0000
(371F) 0000  0000000000000000 (1181)                 .FILL x0000
(3720) 0000  0000000000000000 (1181)                 .FILL x0000
(3721) 0000  0000000000000000 (1181)                 .FILL x0000
(3722) 0000  0000000000000000 (1181)                 .FILL x0000
(3723) 0000  0000000000000000 (1181)                 .FILL x0000
(3724) 0000  0000000000000000 (1181)                 .FILL x0000
(3725) 3E47  0011111001000111 (1181) CPRINTI         ST    R7 CPRR7
(3726) 3247  0011001001000111 (1182)                 ST    R1 CPRR1
(3727) 3447  0011010001000111 (1183)                 ST    R2 CPRR2
(3728) 54A0  0101010010100000 (1184)                 AND   R2 R2 #0
(3729) 1220  0001001000100000 (1185)                 ADD   R1 R0 #0
(372A) 0208  0000001000001000 (1186)                 BRP   CPPRINT4
(372B) 0803  0000100000000011 (1187)                 BRN   CPPRINTREV
(372C) 2043  0010000001000011 (1188)                 LD    R0 CIBASCII
(372D) F021  1111000000100001 (1189)                 TRAP  x21
(372E) 0E3A  0000111000111010 (1190)                 BRNZP CPPRINTFINISH
(372F) 927F  1001001001111111 (1191) CPPRINTREV      NOT   R1 R1
(3730) 2040  0010000001000000 (1192)                 LD    R0 CIBSGN
(3731) F021  1111000000100001 (1193)                 TRAP  x21
(3732) 1261  0001001001100001 (1194)                 ADD   R1 R1 #1
(3733) 5020  0101000000100000 (1195) CPPRINT4        AND   R0 R0 #0
(3734) 2E3D  0010111000111101 (1196)                 LD    R7 CIBIT4
(3735) 13C1  0001001111000001 (1197) CPPRINT4N       ADD   R1 R7 R1
(3736) 0802  0000100000000010 (1198)                 BRN   CPPRINT3
(3737) 1021  0001000000100001 (1199)                 ADD   R0 R0 #1
(3738) 0FFC  0000111111111100 (1200)                 BRNZP CPPRINT4N
(3739) 2E3C  0010111000111100 (1201) CPPRINT3        LD    R7 CIRBIT4
(373A) 1247  0001001001000111 (1202)                 ADD   R1 R1 R7
(373B) 1420  0001010000100000 (1203)                 ADD   R2 R0 #0
(373C) 0C03  0000110000000011 (1204)                 BRNZ  CPPRINT3Y
(373D) 2E32  0010111000110010 (1205)                 LD    R7 CIBASCII
(373E) 1007  0001000000000111 (1206)                 ADD   R0 R0 R7
(373F) F021  1111000000100001 (1207)                 TRAP  x21
(3740) 2E32  0010111000110010 (1208) CPPRINT3Y       LD    R7 CIBIT3
(3741) 5020  0101000000100000 (1209)                 AND   R0 R0 #0
(3742) 13C1  0001001111000001 (1210) CPPRINT3N       ADD   R1 R7 R1
(3743) 0802  0000100000000010 (1211)                 BRN   CPPRINT2
(3744) 1021  0001000000100001 (1212)                 ADD   R0 R0 #1
(3745) 0FFC  0000111111111100 (1213)                 BRNZP CPPRINT3N
(3746) 2E30  0010111000110000 (1214) CPPRINT2        LD    R7 CIRBIT3
(3747) 1247  0001001001000111 (1215)                 ADD   R1 R1 R7
(3748) 1420  0001010000100000 (1216)                 ADD   R2 R0 #0
(3749) 0C03  0000110000000011 (1217)                 BRNZ  CPPRINT2Y
(374A) 2E25  0010111000100101 (1218)                 LD    R7 CIBASCII
(374B) 1007  0001000000000111 (1219)                 ADD   R0 R0 R7
(374C) F021  1111000000100001 (1220)                 TRAP  x21
(374D) 2E26  0010111000100110 (1221) CPPRINT2Y       LD    R7 CIBIT2
(374E) 5020  0101000000100000 (1222)                 AND   R0 R0 #0
(374F) 13C1  0001001111000001 (1223) CPPRINT2N       ADD   R1 R7 R1
(3750) 0802  0000100000000010 (1224)                 BRN   CPPRINT1
(3751) 1021  0001000000100001 (1225)                 ADD   R0 R0 #1
(3752) 0FFC  0000111111111100 (1226)                 BRNZP CPPRINT2N
(3753) 2E24  0010111000100100 (1227) CPPRINT1        LD    R7 CIRBIT2
(3754) 1247  0001001001000111 (1228)                 ADD   R1 R1 R7
(3755) 1420  0001010000100000 (1229)                 ADD   R2 R0 #0
(3756) 0C03  0000110000000011 (1230)                 BRNZ  CPPRINT1Y
(3757) 2E18  0010111000011000 (1231)                 LD    R7 CIBASCII
(3758) 1007  0001000000000111 (1232)                 ADD   R0 R0 R7
(3759) F021  1111000000100001 (1233)                 TRAP  x21
(375A) 2E1A  0010111000011010 (1234) CPPRINT1Y       LD    R7 CIBIT1
(375B) 5020  0101000000100000 (1235)                 AND   R0 R0 #0
(375C) 13C1  0001001111000001 (1236) CPPRINT1N       ADD   R1 R7 R1
(375D) 0802  0000100000000010 (1237)                 BRN   CPPRINT0
(375E) 1021  0001000000100001 (1238)                 ADD   R0 R0 #1
(375F) 0FFC  0000111111111100 (1239)                 BRNZP CPPRINT1N
(3760) 126A  0001001001101010 (1240) CPPRINT0        ADD   R1 R1 #10
(3761) 1420  0001010000100000 (1241)                 ADD   R2 R0 #0
(3762) 0C03  0000110000000011 (1242)                 BRNZ  CPP0
(3763) 2E0C  0010111000001100 (1243)                 LD    R7 CIBASCII
(3764) 1007  0001000000000111 (1244)                 ADD   R0 R0 R7
(3765) F021  1111000000100001 (1245)                 TRAP  x21
(3766) 2E09  0010111000001001 (1246) CPP0            LD    R7 CIBASCII
(3767) 1047  0001000001000111 (1247)                 ADD   R0 R1 R7
(3768) F021  1111000000100001 (1248)                 TRAP  x21
(3769) 2E03  0010111000000011 (1249) CPPRINTFINISH   LD    R7 CPRR7
(376A) 2203  0010001000000011 (1250)                 LD    R1 CPRR1
(376B) 2403  0010010000000011 (1251)                 LD    R2 CPRR2
(376C) C1C0  1100000111000000 (1252)                 RET   
(376D) 0000  0000000000000000 (1254) CPRR7           .FILL x0000
(376E) 0000  0000000000000000 (1255) CPRR1           .FILL x0000
(376F) 0000  0000000000000000 (1256) CPRR2           .FILL x0000
(3770) 0030  0000000000110000 (1256) CIBASCII        .FILL x0030
(3771) 002D  0000000000101101 (1257) CIBSGN          .FILL x002D
(3772) D8F0  1101100011110000 (1258) CIBIT4          .FILL xD8F0
(3773) FC18  1111110000011000 (1259) CIBIT3          .FILL xFC18
(3774) FF9C  1111111110011100 (1260) CIBIT2          .FILL xFF9C
(3775) FFF6  1111111111110110 (1261) CIBIT1          .FILL xFFF6
(3776) 2710  0010011100010000 (1262) CIRBIT4         .FILL x2710
(3777) 03E8  0000001111101000 (1263) CIRBIT3         .FILL x03E8
(3778) 0064  0000000001100100 (1264) CIRBIT2         .FILL x0064
(3779) 000A  0000000000001010 (1265) CIRBIT1         .FILL x000A
(377A) 331C  0011001100011100 (1267) FUNCTION        .FILL x331C
(377B) 3387  0011001110000111 (1268)                 .FILL x3387
(377C) 3007  0011000000000111 (1269)                 .FILL x3007
(377D) 340A  0011010000001010 (1270)                 .FILL x340A
(377E) 3725  0011011100100101 (1271)                 .FILL x3725
(377F) 33B6  0011001110110110 (1272)                 .FILL x33B6
(3780) 33D8  0011001111011000 (1273)                 .FILL x33D8
(3781) 0000  0000000000000000 (1275) STATIC          .FILL x0000
(3782) 0000  0000000000000000 (1275)                 .FILL x0000
(3783) 0000  0000000000000000 (1275)                 .FILL x0000
(3784) 0000  0000000000000000 (1275)                 .FILL x0000
(3785) 0000  0000000000000000 (1275)                 .FILL x0000
(3786) 0000  0000000000000000 (1275)                 .FILL x0000
(3787) 0000  0000000000000000 (1275)                 .FILL x0000
(3788) 0000  0000000000000000 (1275)                 .FILL x0000
(3789) 0000  0000000000000000 (1275)                 .FILL x0000
(378A) 0000  0000000000000000 (1275)                 .FILL x0000
(378B) 0000  0000000000000000 (1275)                 .FILL x0000
(378C) 0000  0000000000000000 (1275)                 .FILL x0000
(378D) 0000  0000000000000000 (1275)                 .FILL x0000
(378E) 0000  0000000000000000 (1275)                 .FILL x0000
(378F) 0000  0000000000000000 (1275)                 .FILL x0000
(3790) 0000  0000000000000000 (1275)                 .FILL x0000
(3791) 0000  0000000000000000 (1275)                 .FILL x0000
(3792) 0000  0000000000000000 (1275)                 .FILL x0000
(3793) 0000  0000000000000000 (1275)                 .FILL x0000
(3794) 0000  0000000000000000 (1275)                 .FILL x0000
(3795) 0000  0000000000000000 (1275)                 .FILL x0000
(3796) 0000  0000000000000000 (1275)                 .FILL x0000
(3797) 0000  0000000000000000 (1275)                 .FILL x0000
(3798) 0000  0000000000000000 (1275)                 .FILL x0000
(3799) 0000  0000000000000000 (1275)                 .FILL x0000
(379A) 0000  0000000000000000 (1275)                 .FILL x0000
(379B) 0000  0000000000000000 (1275)                 .FILL x0000
(379C) 0000  0000000000000000 (1275)                 .FILL x0000
(379D) 0000  0000000000000000 (1275)                 .FILL x0000
(379E) 0000  0000000000000000 (1275)                 .FILL x0000
(379F) 0000  0000000000000000 (1275)                 .FILL x0000
(37A0) 0000  0000000000000000 (1275)                 .FILL x0000
(37A1) 0000  0000000000000000 (1276)                 .FILL x0000
(37A2) 0000  0000000000000000 (1276)                 .FILL x0000
(37A3) 0000  0000000000000000 (1276)                 .FILL x0000
(37A4) 0000  0000000000000000 (1276)                 .FILL x0000
(37A5) 0000  0000000000000000 (1276)                 .FILL x0000
(37A6) 0000  0000000000000000 (1276)                 .FILL x0000
(37A7) 0000  0000000000000000 (1276)                 .FILL x0000
(37A8) 0000  0000000000000000 (1276)                 .FILL x0000
(37A9) 0000  0000000000000000 (1276)                 .FILL x0000
(37AA) 0000  0000000000000000 (1276)                 .FILL x0000
(37AB) 0000  0000000000000000 (1276)                 .FILL x0000
(37AC) 0000  0000000000000000 (1276)                 .FILL x0000
(37AD) 0000  0000000000000000 (1276)                 .FILL x0000
(37AE) 0000  0000000000000000 (1276)                 .FILL x0000
(37AF) 0000  0000000000000000 (1276)                 .FILL x0000
(37B0) 0000  0000000000000000 (1276)                 .FILL x0000
(37B1) 0000  0000000000000000 (1276)                 .FILL x0000
(37B2) 0000  0000000000000000 (1276)                 .FILL x0000
(37B3) 0000  0000000000000000 (1276)                 .FILL x0000
(37B4) 0000  0000000000000000 (1276)                 .FILL x0000
(37B5) 0000  0000000000000000 (1276)                 .FILL x0000
(37B6) 0000  0000000000000000 (1276)                 .FILL x0000
(37B7) 0000  0000000000000000 (1276)                 .FILL x0000
(37B8) 0000  0000000000000000 (1276)                 .FILL x0000
(37B9) 0000  0000000000000000 (1276)                 .FILL x0000
(37BA) 0000  0000000000000000 (1276)                 .FILL x0000
(37BB) 0000  0000000000000000 (1276)                 .FILL x0000
(37BC) 0000  0000000000000000 (1276)                 .FILL x0000
(37BD) 0000  0000000000000000 (1276)                 .FILL x0000
(37BE) 0000  0000000000000000 (1276)                 .FILL x0000
(37BF) 0000  0000000000000000 (1276)                 .FILL x0000
(37C0) 0000  0000000000000000 (1276)                 .FILL x0000
(37C1) 0000  0000000000000000 (1276)                 .FILL x0000
(37C2) 0000  0000000000000000 (1276)                 .FILL x0000
(37C3) 0000  0000000000000000 (1276)                 .FILL x0000
(37C4) 0000  0000000000000000 (1276)                 .FILL x0000
(37C5) 0000  0000000000000000 (1276)                 .FILL x0000
(37C6) 0000  0000000000000000 (1276)                 .FILL x0000
(37C7) 0000  0000000000000000 (1276)                 .FILL x0000
(37C8) 0000  0000000000000000 (1276)                 .FILL x0000
(37C9) 0000  0000000000000000 (1276)                 .FILL x0000
(37CA) 0000  0000000000000000 (1276)                 .FILL x0000
(37CB) 0000  0000000000000000 (1276)                 .FILL x0000
(37CC) 0000  0000000000000000 (1276)                 .FILL x0000
(37CD) 0000  0000000000000000 (1276)                 .FILL x0000
(37CE) 0000  0000000000000000 (1276)                 .FILL x0000
(37CF) 0000  0000000000000000 (1276)                 .FILL x0000
(37D0) 0000  0000000000000000 (1276)                 .FILL x0000
(37D1) 0000  0000000000000000 (1277) STACK           .FILL x0000
